(dp1
VPrimaryWeapon2
p2
(lp3
(dp4
VAvailable
p5
I01
sVBase
p6
(dp7
VStats
p8
(dp9
sVName
p10
VPrimary Weapon Swap
p11
sVCooldown
p12
F0
sVActive
p13
I01
sVDescription
p14
VShips equipped with GSI's "X-Change" primary weapon swap system can mount two primary weapons at the cost of an auxiliary system and switch between weapons during combat--an obvious advantage for combat-oriented pilots looking for flexibility.
p15
sVIcon
p16
Vspvp_primaryweaponswap
p17
ssVStats
p18
(dp19
VlongRangeDamMulti
p20
F1.05
sVmidRangeAccMulti
p21
F0
sVmidRangeDamMulti
p22
F1.1200000000000001
sVWeapon_Shield_Damage_Multiplier
p23
F1
sVWeapon_Base_Accuracy
p24
F1
sVWeapon_Range_Long
p25
F60
sVWeapon_Reload_Time
p26
F0
sVWeapon_Range_Mid
p27
F30
sVWeapon_Lock_On_Time
p28
F0
sVWeapon_Base_Damage
p29
F300
sVWeapon_Cooldown_Time_(OBSOLETE)
p30
F0
sVWeapon_Hull_Damage_Multiplier
p31
F1
sVlongRangeAccMulti
p32
F-0.050000000000000003
sVpbRangeAccMulti
p33
F0.050000000000000003
sVWeapon_Charge_Up_Time
p34
F0
sVWeapon_Firing_Arc
p35
F10
sVpbRangeDamMulti
p36
F1.25
sVWeapon_Power_Draw
p37
F10
sVAmmo_Pool_Size
p38
F0
sVWeapon_Shield_Piercing
p39
F0
sVCrit_Chance
p40
F0
sVWeapon_Range_Point_Blank
p41
F5
sVtrackingAccuracyLoss
p42
F0.02
sVWeapon_Armor_Penetration
p43
F0
sVWeapon_Rate_of_Fire
p44
F2
sVCrit_Damage_Multiplier
p45
F0.5
ssVName
p46
VHeavy Laser Cannon
p47
sVDefault
p48
I01
sVShipRequisitionCost
p49
I2000
sVHasControllerStats
p50
I01
sVTalentTree
p51
(lp52
(lp53
(dp54
VTarget
p55
VSelf
p56
sVIcon
p57
Vspvp_primaryweapondamage
p58
sVStats
p59
(dp60
V[Pc]Weapon_Base_Damage
p61
F0.050000000000000003
ssVName
p62
VIncreased Damage
p63
sVDescription
p64
VBlaster damage increased by 5%.
p65
saa(lp66
(dp67
VTarget
p68
VSelf
p69
sVIcon
p70
Vspvp_primaryweaponrange
p71
sVStats
p72
(dp73
V[Pc]Weapon_Range_Mid
p74
F0.050000000000000003
sV[Pc]Weapon_Range_Long
p75
F0.050000000000000003
sV[Pc]Weapon_Range_Point_Blank
p76
F0.050000000000000003
ssVName
p77
VIncreased Range
p78
sVDescription
p79
VBlaster range increased by 5%.
p80
saa(lp81
(dp82
VTarget
p83
VSelf
p84
sVIcon
p85
Vspvp_damagereduction
p86
sVStats
p87
(dp88
VWeapon_Hull_Damage_Multiplier
p89
F0.080000000000000002
ssVName
p90
VIncreased Hull Damage
p91
sVDescription
p92
VBlaster damage to enemy ship hulls increased by 8%.
p93
saa(lp94
(dp95
VTarget
p96
VSelf
p97
sVIcon
p98
Vspvp_increasedsystemsdamagechance
p99
sVStats
p100
(dp101
VWeapon_Tracking_Bonus
p102
F0.050000000000000003
sVCrit_Chance
p103
F0.029999999999999999
ssVName
p104
VImproved Tracking and Critical Chance
p105
sVDescription
p106
VCritical hit chance increased by 3%, and weapon tracking penalty reduced by 5%.
p107
sa(dp108
VTarget
p109
VSelf
p110
sVIcon
p111
Vspvp_ignorearmor
p112
sVStats
p113
(dp114
VWeapon_Armor_Penetration
p115
F1
ssVName
p116
VIgnore Armor
p117
sVDescription
p118
VBlaster damage ignores 100% of enemy armor.
p119
saa(lp120
(dp121
VTarget
p122
VSelf
p123
sVIcon
p124
Vspvp_shieldpiercing
p125
sVStats
p126
(dp127
VWeapon_Shield_Piercing
p128
F0.14999999999999999
ssVName
p129
VShield Piercing
p130
sVDescription
p131
VShield piercing increased by 15%.
p132
sa(dp133
VTarget
p134
VSelf
p135
sVIcon
p136
Vspvp_shielddisruption
p137
sVStats
p138
(dp139
VWeapon_Shield_Damage_Multiplier
p140
F0.17999999999999999
ssVName
p141
VIncreased Shield Damage
p142
sVDescription
p143
VBlaster damage to enemy ship shields increased by 18%.
p144
saasVTalentRowCosts
p145
(lp146
I1000
aI2500
aI5000
aI10000
aI15000
asVDescription
p147
VThe SoroSuub HLC-14 heavy laser cannon has high accuracy, long range and does great damage. Its slow rate of fire and significant power consumption are seen by many pilots as a fair tradeoff. Since SoroSuub's Sullust manufacturing centers were captured by the Empire, both Republic and Imperial navies have scrambled to obtain enough HLC-14s to arm their respective fleets.
p148
sVIcon
p149
Vspvp.neu.dropship.pweapon.01
p150
sa(dp151
VAvailable
p152
I01
sVBase
p153
(dp154
VStats
p155
(dp156
sVName
p157
VPrimary Weapon Swap
p158
sVCooldown
p159
F0
sVActive
p160
I01
sVDescription
p161
VShips equipped with GSI's "X-Change" primary weapon swap system can mount two primary weapons at the cost of an auxiliary system and switch between weapons during combat--an obvious advantage for combat-oriented pilots looking for flexibility.
p162
sVIcon
p163
Vspvp_primaryweaponswap
p164
ssVStats
p165
(dp166
VlongRangeDamMulti
p167
F0.84999999999999998
sVmidRangeAccMulti
p168
F-0.050000000000000003
sVmidRangeDamMulti
p169
F1.05
sVWeapon_Shield_Damage_Multiplier
p170
F1
sVWeapon_Base_Accuracy
p171
F1
sVWeapon_Range_Long
p172
F50
sVWeapon_Reload_Time
p173
F0
sVWeapon_Range_Mid
p174
F30
sVWeapon_Lock_On_Time
p175
F0
sVWeapon_Base_Damage
p176
F300
sVWeapon_Cooldown_Time_(OBSOLETE)
p177
F0
sVWeapon_Hull_Damage_Multiplier
p178
F1
sVlongRangeAccMulti
p179
F-0.14999999999999999
sVpbRangeAccMulti
p180
F0.10000000000000001
sVWeapon_Charge_Up_Time
p181
F0
sVWeapon_Firing_Arc
p182
F12
sVpbRangeDamMulti
p183
F1.1299999999999999
sVWeapon_Power_Draw
p184
F8.8000000000000007
sVAmmo_Pool_Size
p185
F0
sVWeapon_Shield_Piercing
p186
F0
sVCrit_Chance
p187
F0
sVWeapon_Range_Point_Blank
p188
F5
sVtrackingAccuracyLoss
p189
F0.014999999999999999
sVWeapon_Armor_Penetration
p190
F0
sVWeapon_Rate_of_Fire
p191
F2.5
sVCrit_Damage_Multiplier
p192
F0.5
ssVName
p193
VQuad Laser Cannon
p194
sVDefault
p195
I00
sVShipRequisitionCost
p196
I2000
sVHasControllerStats
p197
I01
sVTalentTree
p198
(lp199
(lp200
(dp201
VTarget
p202
VSelf
p203
sVIcon
p204
Vspvp_primaryweaponrof
p205
sVStats
p206
(dp207
V[Pc]Weapon_Rate_of_Fire
p208
F0.080000000000000002
ssVName
p209
VIncreased Rate of Fire
p210
sVDescription
p211
VBlaster rate of fire increased by 8%.
p212
saa(lp213
(dp214
VTarget
p215
VSelf
p216
sVIcon
p217
Vspvp_primaryweaponrange
p218
sVStats
p219
(dp220
V[Pc]Weapon_Range_Mid
p221
F0.050000000000000003
sV[Pc]Weapon_Range_Long
p222
F0.050000000000000003
sV[Pc]Weapon_Range_Point_Blank
p223
F0.050000000000000003
ssVName
p224
VIncreased Range
p225
sVDescription
p226
VBlaster range increased by 5%.
p227
saa(lp228
(dp229
VTarget
p230
VSelf
p231
sVIcon
p232
Vspvp_primaryweapondamage
p233
sVStats
p234
(dp235
V[Pc]Weapon_Base_Damage
p236
F0.050000000000000003
ssVName
p237
VIncreased Damage
p238
sVDescription
p239
VBlaster damage increased by 5%.
p240
saa(lp241
(dp242
VTarget
p243
VSelf
p244
sVIcon
p245
Vspvp_increasedsystemsdamagechance
p246
sVStats
p247
(dp248
VCrit_Chance
p249
F0.080000000000000002
ssVName
p250
VIncreased Critical Hit Chance
p251
sVDescription
p252
VCritical hit chance increased by 8%.
p253
sa(dp254
VTarget
p255
VSelf
p256
sVIcon
p257
Vspvp_reducedpowerdraw1
p258
sVStats
p259
(dp260
V[Pc]Weapon_Power_Draw
p261
F-0.10000000000000001
ssVName
p262
VReduced Power Cost
p263
sVDescription
p264
VThe cost of using blasters is reduced by 10%.
p265
saa(lp266
(dp267
VTarget
p268
VSelf
p269
sVIcon
p270
Vspvp_ignorearmor
p271
sVStats
p272
(dp273
VWeapon_Hull_Damage_Multiplier
p274
F0.16
ssVName
p275
VIncreased Hull Damage
p276
sVDescription
p277
VBlaster damage to enemy ship hulls increased by 16%.
p278
sa(dp279
VTarget
p280
VSelf
p281
sVIcon
p282
Vspvp_shieldpiercing
p283
sVStats
p284
(dp285
VWeapon_Shield_Damage_Multiplier
p286
F0.17999999999999999
ssVName
p287
VIncreased Shield Damage
p288
sVDescription
p289
VBlaster damage to enemy ship shields increased by 18%.
p290
saasVTalentRowCosts
p291
(lp292
I1000
aI2500
aI5000
aI10000
aI15000
asVDescription
p293
VThe gold standard of laser cannon design, Merr-Sonn's LCQ-4 quad laser cannon fires alternating pairs of bolts from four cannon barrels, dealing considerably more damage than standard laser cannons while maintaining formidable accuracy and rate of fire. Its biggest downside is its power consumption--a drawback Merr-Sonn is keen to downplay.
p294
sVIcon
p295
Vspvp.neu.dropship.pweapon.01
p296
sa(dp297
VAvailable
p298
I01
sVBase
p299
(dp300
VStats
p301
(dp302
sVName
p303
VPrimary Weapon Swap
p304
sVCooldown
p305
F0
sVActive
p306
I01
sVDescription
p307
VShips equipped with GSI's "X-Change" primary weapon swap system can mount two primary weapons at the cost of an auxiliary system and switch between weapons during combat--an obvious advantage for combat-oriented pilots looking for flexibility.
p308
sVIcon
p309
Vspvp_primaryweaponswap
p310
ssVStats
p311
(dp312
VlongRangeDamMulti
p313
F0.68000000000000005
sVmidRangeAccMulti
p314
F-0.14999999999999999
sVmidRangeDamMulti
p315
F0.83999999999999997
sVWeapon_Shield_Damage_Multiplier
p316
F1
sVWeapon_Base_Accuracy
p317
F1
sVWeapon_Range_Long
p318
F40
sVWeapon_Reload_Time
p319
F0
sVWeapon_Range_Mid
p320
F30
sVWeapon_Lock_On_Time
p321
F0
sVWeapon_Base_Damage
p322
F215
sVWeapon_Cooldown_Time_(OBSOLETE)
p323
F0
sVWeapon_Hull_Damage_Multiplier
p324
F1
sVlongRangeAccMulti
p325
F-0.25
sVpbRangeAccMulti
p326
F0.10000000000000001
sVWeapon_Charge_Up_Time
p327
F0
sVWeapon_Firing_Arc
p328
F16
sVpbRangeDamMulti
p329
F1
sVWeapon_Power_Draw
p330
F4
sVAmmo_Pool_Size
p331
F0
sVWeapon_Shield_Piercing
p332
F0
sVCrit_Chance
p333
F0
sVWeapon_Range_Point_Blank
p334
F5
sVtrackingAccuracyLoss
p335
F0.0080000000000000002
sVWeapon_Armor_Penetration
p336
F0
sVWeapon_Rate_of_Fire
p337
F4
sVCrit_Damage_Multiplier
p338
F0.5
ssVName
p339
VRapid-fire Laser Cannon
p340
sVDefault
p341
I00
sVShipRequisitionCost
p342
I2000
sVHasControllerStats
p343
I01
sVTalentTree
p344
(lp345
(lp346
(dp347
VTarget
p348
VSelf
p349
sVIcon
p350
Vspvp_primaryweapondamage
p351
sVStats
p352
(dp353
V[Pc]Weapon_Base_Damage
p354
F0.050000000000000003
ssVName
p355
VIncreased Damage
p356
sVDescription
p357
VBlaster damage increased by 5%.
p358
saa(lp359
(dp360
VTarget
p361
VSelf
p362
sVIcon
p363
Vspvp_reducedpowerdraw1
p364
sVStats
p365
(dp366
V[Pc]Weapon_Power_Draw
p367
F-0.10000000000000001
ssVName
p368
VReduced Power Cost
p369
sVDescription
p370
VThe cost of using blasters is reduced by 10%.
p371
saa(lp372
(dp373
VTarget
p374
VSelf
p375
sVIcon
p376
Vspvp_primaryweaponrof
p377
sVStats
p378
(dp379
V[Pc]Weapon_Rate_of_Fire
p380
F0.080000000000000002
ssVName
p381
VIncreased Rate of Fire
p382
sVDescription
p383
VBlaster rate of fire increased by 8%.
p384
saa(lp385
(dp386
VTarget
p387
VSelf
p388
sVIcon
p389
Vspvp_increasedsystemsdamagechance
p390
sVStats
p391
(dp392
VCrit_Chance
p393
F0.080000000000000002
ssVName
p394
VIncreased Critical Hit Chance
p395
sVDescription
p396
VCritical hit chance increased by 8%.
p397
sa(dp398
VTarget
p399
VSelf
p400
sVIcon
p401
Vspvp_improvedfiringarctrackingbonus
p402
sVStats
p403
(dp404
VWeapon_Tracking_Bonus
p405
F0.050000000000000003
sVWeapon_Firing_Arc
p406
F1
ssVName
p407
VImproved Firing Arc and Tracking
p408
sVDescription
p409
VFiring arc increased by 2 degrees and weapon tracking penalty reduced by 5%.
p410
saa(lp411
(dp412
VTarget
p413
VSelf
p414
sVIcon
p415
Vspvp_ignorearmor
p416
sVStats
p417
(dp418
VWeapon_Hull_Damage_Multiplier
p419
F0.16
ssVName
p420
VIncreased Hull Damage
p421
sVDescription
p422
VBlaster damage to enemy ship hulls increased by 16%.
p423
sa(dp424
VTarget
p425
VSelf
p426
sVIcon
p427
Vspvp_shieldpiercing
p428
sVStats
p429
(dp430
VWeapon_Shield_Damage_Multiplier
p431
F0.17999999999999999
ssVName
p432
VIncreased Shield Damage
p433
sVDescription
p434
VBlaster damage to enemy ship shields increased by 18%.
p435
saasVTalentRowCosts
p436
(lp437
I1000
aI2500
aI5000
aI10000
aI15000
asVDescription
p438
VBlasTech's Spitfire rapid-fire laser cannon is capable of delivering an unparalleled number of bolts per second for a sustained period due to its low power consumption. Its damage fall-off and poor accuracy, however, limit its effectiveness to short-range engagements.
p439
sVIcon
p440
Vspvp.neu.dropship.pweapon.01
p441
sa(dp442
VAvailable
p443
I01
sVBase
p444
(dp445
VStats
p446
(dp447
sVName
p448
VPrimary Weapon Swap
p449
sVCooldown
p450
F0
sVActive
p451
I01
sVDescription
p452
VShips equipped with GSI's "X-Change" primary weapon swap system can mount two primary weapons at the cost of an auxiliary system and switch between weapons during combat--an obvious advantage for combat-oriented pilots looking for flexibility.
p453
sVIcon
p454
Vspvp_primaryweaponswap
p455
ssVStats
p456
(dp457
VlongRangeDamMulti
p458
F0.80000000000000004
sVmidRangeAccMulti
p459
F-0.050000000000000003
sVmidRangeDamMulti
p460
F1.05
sVWeapon_Shield_Damage_Multiplier
p461
F2
sVWeapon_Base_Accuracy
p462
F1
sVWeapon_Range_Long
p463
F40
sVWeapon_Reload_Time
p464
F0
sVWeapon_Range_Mid
p465
F30
sVWeapon_Lock_On_Time
p466
F0
sVWeapon_Base_Damage
p467
F280
sVWeapon_Cooldown_Time_(OBSOLETE)
p468
F0
sVWeapon_Hull_Damage_Multiplier
p469
F0.25
sVlongRangeAccMulti
p470
F-0.10000000000000001
sVpbRangeAccMulti
p471
F0.10000000000000001
sVWeapon_Charge_Up_Time
p472
F0
sVWeapon_Firing_Arc
p473
F12
sVpbRangeDamMulti
p474
F1.1299999999999999
sVWeapon_Power_Draw
p475
F8
sVAmmo_Pool_Size
p476
F0
sVWeapon_Shield_Piercing
p477
F0
sVCrit_Chance
p478
F0
sVWeapon_Range_Point_Blank
p479
F5
sVtrackingAccuracyLoss
p480
F0.01
sVWeapon_Armor_Penetration
p481
F0
sVWeapon_Rate_of_Fire
p482
F2.5
sVCrit_Damage_Multiplier
p483
F0.5
ssVName
p484
VIon Cannon
p485
sVDefault
p486
I00
sVShipRequisitionCost
p487
I2000
sVHasControllerStats
p488
I01
sVTalentTree
p489
(lp490
(lp491
(dp492
VTarget
p493
VSelf
p494
sVIcon
p495
Vspvp_increaseaccuracy
p496
sVStats
p497
(dp498
VWeapon_Base_Accuracy
p499
F0.059999999999999998
ssVName
p500
VImproved Accuracy
p501
sVDescription
p502
VWeapon accuracy increased by 6%.
p503
saa(lp504
(dp505
VTarget
p506
VSelf
p507
sVIcon
p508
Vspvp_reducedpowerdraw1
p509
sVStats
p510
(dp511
V[Pc]Weapon_Power_Draw
p512
F-0.10000000000000001
ssVName
p513
VReduced Power Cost
p514
sVDescription
p515
VThe cost of using blasters is reduced by 10%.
p516
saa(lp517
(dp518
VTarget
p519
VSelf
p520
sVIcon
p521
Vspvp_primaryweaponrof
p522
sVStats
p523
(dp524
V[Pc]Weapon_Rate_of_Fire
p525
F0.080000000000000002
ssVName
p526
VIncreased Rate of Fire
p527
sVDescription
p528
VBlaster rate of fire increased by 8%.
p529
saa(lp530
(dp531
VTarget
p532
V
sVIcon
p533
Vspvp_powerdrainengine
p534
sVStats
p535
(dp536
sVName
p537
VDrain Engine Power
p538
sVDescription
p539
VBlaster hits drain 4 engine power from the target.
p540
sa(dp541
VTarget
p542
VSelf
p543
sVIcon
p544
Vspvp_primaryweaponrange
p545
sVStats
p546
(dp547
V[Pc]Weapon_Range_Mid
p548
F0.050000000000000003
sV[Pc]Weapon_Range_Long
p549
F0.050000000000000003
sV[Pc]Weapon_Range_Point_Blank
p550
F0.050000000000000003
ssVName
p551
VIncreased Range
p552
sVDescription
p553
VIon Cannon range increased by 5%.
p554
saa(lp555
(dp556
VTarget
p557
V
sVIcon
p558
Vspvp_powerdrainweapon
p559
sVStats
p560
(dp561
sVName
p562
VDrain Weapon Power
p563
sVDescription
p564
VBlaster hits drain 4 weapon power from the target.
p565
sa(dp566
VTarget
p567
V
sVIcon
p568
Vspvp_shielddisruption
p569
sVStats
p570
(dp571
sVName
p572
VDrain Shield Power
p573
sVDescription
p574
VBlaster hits drain 40 shield power from the target.
p575
saasVTalentRowCosts
p576
(lp577
I1000
aI2500
aI5000
aI10000
aI15000
asVDescription
p578
VSanthe Corporation ion cannons (nicknamed "Sparkers" by Republic pilots) do almost no damage to ship hulls but eliminate shields at frightening speed and easily disable enemy systems. They are too inaccurate to be used effectively at long range and have a slow rate of fire, but consume only moderate amounts of energy.
p579
sVIcon
p580
Vspvp.neu.dropship.pweapon.01
p581
sasVStats
p582
(dp583
V4611686349307137003
p584
F0.59999999999999998
sVPower_Weapon_Regen_Rate_(when_Recently_Consumed)
p585
F4
sVWeapon_Max_Power
p586
F100
sVShip_Evasion
p587
F0.050000000000000003
sVShip_Damage_Reduction
p588
F0
sVTurn_Rate_Modifier
p589
F1
sVPower_Shield_Regen_High_Power_Multiplier_(OBSOLETE?)
p590
F1
sVEngine_Speed_Modifier_at_Max_Power
p591
F1.2
sVPower_Shield_Regen_Rate_(when_Recently_Consumed)
p592
F0
sV4611686349307137002
p593
F0.59999999999999998
sVPower_Engine_Regen_High_Power_Multiplier_(OBSOLETE?)
p594
F1
sV4611686349353597003
p595
F0.64000000000000001
sVBooster_Maneuverability_Modifier
p596
F0.25
sVSensor_Focused_Detection_Arc
p597
F15
sVBooster_Power_Per-Second_Consumption
p598
F12
sVPower_Engine_Regen_Rate
p599
F5
sVPower_Weapon_Regen_High_Power_Multiplier_(OBSOLETE?)
p600
F1
sV4611686348946057021
p601
F10
sV4611686348946057020
p602
F100
sVWeapon_Damage_Modifier_at_Max_Power
p603
F1.1000000000000001
sVPower_Shield_Regen_Rate
p604
F150
sVPower_Engine_Regen_Rate_(when_Recently_Consumed)
p605
F2
sVCrit_Chance_Reduction
p606
F0
sV4611686349307137004
p607
F1.5
sVSensor_Detection_Radius
p608
F150
sVBooster_Speed_Multiplier
p609
F3.2000000000000002
sVEngine_Speed_Multiplier
p610
F1
sV4611686349353597008
p611
F1.3200000000000001
sVEngines_Max_Power
p612
F100
sVBooster_Acceleration
p613
F10
sVYaw
p614
F0.95999999999999996
sVPower_Weapon_Regen_Rate
p615
F10
sVEngine_Base_Speed
p616
F5.7999999999999998
sV4611686349353597004
p617
F0.80000000000000004
sVBooster_Activation_Power_Cost
p618
F6
sV4611686349353597006
p619
F0.53000000000000003
sV4611686349353597001
p620
F3.8999999999999999
sVSensor_Dampening
p621
F100
sV4611686349353597002
p622
F1.8999999999999999
sVBooster_Maneuverability_Regain_Time
p623
F2
sVPitch
p624
F1.5800000000000001
sVSensor_Signature
p625
F0
sVEngine_Speed_Modifier_at_Min_Power
p626
F0.90000000000000002
sVShield_Strength_Modifier_at_Default_Power
p627
F1
sVPower_Engine_Regen_Delay
p628
F3
sV4611686348946057019
p629
F1
sVWeapon_Damage_Modifier_at_Min_Power
p630
F0.94999999999999996
sVPower_Shield_Regen_Delay
p631
F6
sVStrafe_Modifier
p632
F1
sVWeapon_Damage_Modifier_at_Default_Power
p633
F1
sVSensor_Communication_Range
p634
F75
sVPower_Weapon_Regen_Delay
p635
F1.5
sVMax_Health
p636
F1350
sVShield_Strength_Modifier_at_Min_Power
p637
F0.90000000000000002
sVSensor_Focused_Detection_Range
p638
F165
sV4611686348946057018
p639
F2.1000000000000001
sVShields_Max_Power_(Capacity)
p640
F3000
sVCrit_Chance
p641
F0
sVShield_Strength_Modifier_at_Max_Power
p642
F1.2
sV4611686348946057012
p643
F1.8
sV4611686348946057013
p644
F1.8
sV4611686348946057010
p645
F1.2
sV4611686348946057011
p646
F0.80000000000000004
sV4611686348946057017
p647
F1
sV4611686348946057014
p648
F100
sV4611686348946057015
p649
F30
sVShield_Bleed_Through
p650
F0
sV4611686349353597010
p651
F0.53000000000000003
sV4611686349353597007
p652
F1.0600000000000001
ssVName
p653
VX7-Mirage
p654
sVArmor
p655
(lp656
(dp657
VAvailable
p658
I01
sVBase
p659
(dp660
VStats
p661
(dp662
VShip_Damage_Reduction
p663
F0.080000000000000002
ssVName
p664
VDurasteel Plating
p665
sVCooldown
p666
F0
sVActive
p667
I00
sVDescription
p668
VReduces the amount of damage done to your hull by 8%.
p669
sVIcon
p670
Vspvp_damagereduction
p671
ssVStats
p672
(dp673
sVName
p674
VDeflection Armor
p675
sVDefault
p676
I00
sVShipRequisitionCost
p677
I1000
sVHasControllerStats
p678
I00
sVTalentTree
p679
(lp680
(lp681
(dp682
VTarget
p683
V
sVIcon
p684
Vspvp_damagereduction
p685
sVStats
p686
(dp687
VShip_Damage_Reduction
p688
F0.040000000000000001
ssVName
p689
VImproved Damage Reduction
p690
sVDescription
p691
VReduces the amount of damage done to your hull by an additional 4%.
p692
saa(lp693
(dp694
VTarget
p695
V
sVIcon
p696
Vspvp_damagereduction
p697
sVStats
p698
(dp699
VShip_Damage_Reduction
p700
F0.040000000000000001
ssVName
p701
VImproved Damage Reduction
p702
sVDescription
p703
VReduces the amount of damage done to your hull by an additional 4%.
p704
saa(lp705
(dp706
VTarget
p707
V
sVIcon
p708
Vspvp_damagereduction
p709
sVStats
p710
(dp711
VShip_Damage_Reduction
p712
F0.040000000000000001
ssVName
p713
VImproved Damage Reduction
p714
sVDescription
p715
VReduces the amount of damage done to your hull by an additional 4%.
p716
saasVTalentRowCosts
p717
(lp718
I1000
aI1500
aI2500
asVDescription
p719
VIn order to reduce the amount of hull damage sustained whenever a ship is hit, GSI's AR-0B damage reduction armor component generates an ablative energy current through the ship's hull plating.
p720
sVIcon
p721
Vspvp_damagereduction
p722
sa(dp723
VAvailable
p724
I01
sVBase
p725
(dp726
VStats
p727
(dp728
VShip_Evasion
p729
F0.029999999999999999
ssVName
p730
VComposite Plating
p731
sVCooldown
p732
F0
sVActive
p733
I00
sVDescription
p734
VIncreases the chance enemies will miss you by 3%.
p735
sVIcon
p736
Vspvp_evasion
p737
ssVStats
p738
(dp739
sVName
p740
VLightweight Armor
p741
sVDefault
p742
I01
sVShipRequisitionCost
p743
I1000
sVHasControllerStats
p744
I00
sVTalentTree
p745
(lp746
(lp747
(dp748
VTarget
p749
V
sVIcon
p750
Vspvp_evasion
p751
sVStats
p752
(dp753
VShip_Evasion
p754
F0.02
ssVName
p755
VIncreased Evasion
p756
sVDescription
p757
VIncreases the chance enemies will miss you by an additional 2%.
p758
saa(lp759
(dp760
VTarget
p761
V
sVIcon
p762
Vspvp_evasion
p763
sVStats
p764
(dp765
VShip_Evasion
p766
F0.02
ssVName
p767
VIncreased Evasion
p768
sVDescription
p769
VIncreases the chance enemies will miss you by an additional 2%.
p770
saa(lp771
(dp772
VTarget
p773
V
sVIcon
p774
Vspvp_evasion
p775
sVStats
p776
(dp777
VShip_Evasion
p778
F0.02
ssVName
p779
VIncreased Evasion
p780
sVDescription
p781
VIncreases the chance enemies will miss you by an additional 2%.
p782
saasVTalentRowCosts
p783
(lp784
I1000
aI1500
aI2500
asVDescription
p785
VSanthe engineers custom design G-32 evasive armor plating for each class of ship supported. The G-32 components increase a ship's overall maneuverability by accommodating the ship's overall shape, thruster locations, and gravity field generators.
p786
sVIcon
p787
Vspvp_evasion
p788
sa(dp789
VAvailable
p790
I01
sVBase
p791
(dp792
VStats
p793
(dp794
V[Pc]Max_Health
p795
F0.080000000000000002
ssVName
p796
VStructural Reinforcement
p797
sVCooldown
p798
F0
sVActive
p799
I00
sVDescription
p800
VIncreases the total amount of damage your hull can take by 8%.
p801
sVIcon
p802
Vspvp_hullstrength
p803
ssVStats
p804
(dp805
sVName
p806
VReinforced Armor
p807
sVDefault
p808
I00
sVShipRequisitionCost
p809
I1000
sVHasControllerStats
p810
I00
sVTalentTree
p811
(lp812
(lp813
(dp814
VTarget
p815
V
sVIcon
p816
Vspvp_hullstrength
p817
sVStats
p818
(dp819
V[Pc]Max_Health
p820
F0.040000000000000001
ssVName
p821
VIncreased Hull Strength
p822
sVDescription
p823
VIncreases the total amount of damage your hull can take by an additional 4%.
p824
saa(lp825
(dp826
VTarget
p827
V
sVIcon
p828
Vspvp_hullstrength
p829
sVStats
p830
(dp831
V[Pc]Max_Health
p832
F0.040000000000000001
ssVName
p833
VIncreased Hull Strength
p834
sVDescription
p835
VIncreases the total amount of damage your hull can take by an additional 4%.
p836
saa(lp837
(dp838
VTarget
p839
V
sVIcon
p840
Vspvp_hullstrength
p841
sVStats
p842
(dp843
V[Pc]Max_Health
p844
F0.040000000000000001
ssVName
p845
VIncreased Hull Strength
p846
sVDescription
p847
VIncreases the total amount of damage your hull can take by an additional 4%.
p848
saasVTalentRowCosts
p849
(lp850
I1000
aI1500
aI2500
asVDescription
p851
VCzerka's HP-S-5 starfighter armor layers additional centimeters of durasteel (along with patented alloys) onto a ship's hull. A ship armored this way can sustain more hull damage and survive longer.
p852
sVIcon
p853
Vspvp_hullstrength
p854
sasVSecondaryWeapon
p855
(lp856
(dp857
VAvailable
p858
I01
sVBase
p859
(dp860
VStats
p861
(dp862
sVName
p863
V
sVCooldown
p864
I0
sVActive
p865
I00
sVDescription
p866
V
sVIcon
p867
V
ssVStats
p868
(dp869
VlongRangeDamMulti
p870
F0
sVmidRangeAccMulti
p871
F0
sVmidRangeDamMulti
p872
F0
sVWeapon_Shield_Damage_Multiplier
p873
F1
sVWeapon_Base_Accuracy
p874
F0
sVWeapon_Range_Long
p875
F30
sVWeapon_Reload_Time
p876
F12
sVWeapon_Range_Mid
p877
F0
sVWeapon_Lock_On_Time
p878
F3
sVWeapon_Base_Damage
p879
F420
sVWeapon_Cooldown_Time_(OBSOLETE)
p880
F0
sVWeapon_Hull_Damage_Multiplier
p881
F1
sVlongRangeAccMulti
p882
F0
sVpbRangeAccMulti
p883
F0
sVWeapon_Charge_Up_Time
p884
F0
sVWeapon_Firing_Arc
p885
F14
sVpbRangeDamMulti
p886
F0
sVWeapon_Power_Draw
p887
F0
sVAmmo_Pool_Size
p888
F16
sVWeapon_Shield_Piercing
p889
F1
sVCrit_Chance
p890
F0
sVWeapon_Range_Point_Blank
p891
F0
sVtrackingAccuracyLoss
p892
F0
sVWeapon_Armor_Penetration
p893
F0
sVWeapon_Rate_of_Fire
p894
F0
sVCrit_Damage_Multiplier
p895
F0.5
ssVName
p896
VGraviton Charges
p897
sVDefault
p898
I00
sVShipRequisitionCost
p899
I2000
sVHasControllerStats
p900
I01
sVTalentTree
p901
(lp902
sVTalentRowCosts
p903
(lp904
I1000
aI2500
aI5000
aI10000
aI15000
asVDescription
p905
VBorallis's experimental Compressor graviton charges lock onto enemy vessels like missiles but have a very short range. A graviton charge that hits its target magnetically affixes to the enemy ship and generates its own gravitational field, reducing the ship's speed and maneuverability and causing minor hull damage over a short time period. Graviton charge launchers require a lengthy recharge time; charges cannot be launched in rapid succession.
p906
sVIcon
p907
V
sa(dp908
VAvailable
p909
I01
sVBase
p910
(dp911
VStats
p912
(dp913
sVName
p914
V
sVCooldown
p915
I0
sVActive
p916
I00
sVDescription
p917
V
sVIcon
p918
V
ssVStats
p919
(dp920
sVName
p921
VIon Burst
p922
sVDefault
p923
I01
sVShipRequisitionCost
p924
I2000
sVHasControllerStats
p925
I00
sVTalentTree
p926
(lp927
sVTalentRowCosts
p928
(lp929
I1000
aI2500
aI5000
aI10000
aI15000
asVDescription
p930
VBuilt by the Santhe Corporation for use by pilots able to close in on their prey, the I-01 radial burst energizer unleashes a short-range ion wave that causes massive shield damage and drains power from enemies in all directions.
p931
sVIcon
p932
V
sasVAuxSystemContainer
p933
VSystems
p934
sVImperial
p935
(lp936
(dp937
VShips
p938
(lp939
(dp940
VAvailable
p941
I01
sVName
p942
VB-4D Legion
p943
sVIsCartelMarketShip
p944
I00
sVFleetRequisitionCost
p945
I5000
sVJsonPath
p946
VImperial_B-4D_Legion.json
p947
sVPreviewImage
p948
Vimp_bomber_a_gr2
p949
sVDescription
p950
VThe Sernpidal shipyards' B-4D Legion bomber utilizes drone technology at every turn. The Legion's drones can be used to strike at foes, reinforce and repair allies, and offer new battlefield strategies, turning the bomber into a versatile and devious wildcard. In addition to its basic laser cannons, the Legion can equip either a missile or mine as a secondary weapon, giving it further means of destroying foes.
p951
sVIcon
p952
Vspvp_imp_bomber_3
p953
sa(dp954
VAvailable
p955
I01
sVName
p956
VG-X1 Onslaught
p957
sVIsCartelMarketShip
p958
I01
sVFleetRequisitionCost
p959
I0
sVJsonPath
p960
VImperial_G-X1_Onslaught.json
p961
sVPreviewImage
p962
Vspvp_neu_starship_condor_a_gr2
p963
sVDescription
p964
VA relatively new addition to Imperial starfighter complements, the GSI-produced G-X1 Onslaught is already earning a stellar reputation among first-run pilots. Bulk purchases of military hardware from outside the Empire's own manufacturing centers are incredibly rare, but rumors persist that the Ministry of War plans to make the Onslaught a common sight among Imperial bomber squadrons in years to come, suggesting that the ship is even more capable than its enthusiastic marketing materials suggest.
p965
sVIcon
p966
Vspvp_premium_bomber
p967
sa(dp968
VAvailable
p969
I01
sVName
p970
VB-5 Decimus
p971
sVIsCartelMarketShip
p972
I00
sVFleetRequisitionCost
p973
I5000
sVJsonPath
p974
VImperial_B-5_Decimus.json
p975
sVPreviewImage
p976
Vimp_bomber_b_gr2
p977
sVDescription
p978
VNamed for the Sith Lord who commissioned it, the Sernpidal-built B-5 Decimus was banned by the Treaty of Coruscant for its frequent use against civilians. The new B-6 Decimus design was rededicated to combat, and the ship boasts heavy laser cannons, can equip either missiles or torpedoes as secondaries, and has access to a limited selection of auxiliary mines and drones. The Decimus is more maneuverable than other bombers but has a somewhat weaker hull.
p979
sVIcon
p980
Vspvp_imp_bomber_2
p981
sa(dp982
VAvailable
p983
I01
sVName
p984
VM-7 Razorwire
p985
sVIsCartelMarketShip
p986
I00
sVFleetRequisitionCost
p987
I2500
sVJsonPath
p988
VImperial_M-7_Razorwire.json
p989
sVPreviewImage
p990
Vimp_bomber_c_gr2
p991
sVDescription
p992
VThe M-7 Razorwire is the ultimate Imperial minelayer, built in the Sernpidal shipyards and loaded with some of the most dangerous ordnance in the galaxy. The Razorwire carries multiple sets of mines and possesses expanded ammunition capacity, allowing it to deploy deadly traps and barricades wherever required. A moderate sensor range and long-range communications systems allow Razorwire pilots to coordinate with allies, but as with other bombers, its dogfighting capability is poor.
p993
sVIcon
p994
Vspvp_imp_bomber_1
p995
sasVCategoryName
p996
VBomber
p997
sa(dp998
VShips
p999
(lp1000
(dp1001
VAvailable
p1002
I01
sVName
p1003
VK-52 Demolisher
p1004
sVIsCartelMarketShip
p1005
I01
sVFleetRequisitionCost
p1006
I0
sVJsonPath
p1007
VImperial_K-52_Demolisher.json
p1008
sVPreviewImage
p1009
Vspvp_neu_heavy_utility_starship_a_gr2
p1010
sVDescription
p1011
VA custom gunship design sold to "discerning customers" all over the galaxy with no questions asked, Hyrotii's K-52 Strongarm was first popularized within the Empire after its purchase by Dark Council member Darth Marr. Many other Sith and military officers soon followed suit, and their impressive combat records in the craft have led to frequent purchases among the Imperial elite.
p1012
sVIcon
p1013
Vspvp_premium_heavy
p1014
sa(dp1015
VAvailable
p1016
I01
sVName
p1017
VVX-9 Mailoc
p1018
sVIsCartelMarketShip
p1019
I01
sVFleetRequisitionCost
p1020
I0
sVJsonPath
p1021
VImperial_VX-9_Mailoc.json
p1022
sVPreviewImage
p1023
Vspvp_neu_starship_ricker_a_gr2
p1024
sVDescription
p1025
VAlthough it is no longer fielded as widely as newer designs, the VX-9 Mailoc gunship is still produced at Dromund Kalakar shipyards, and remains a favorite of many veteran Imperial pilots. The ship has certainly distinguished itself in combat against Republic forces - so much so that the SIS carried out a costly covert mission to acquire the ship's design specifications for themselves. Unfazed by the loss, Imperial Mailoc pilots take great pride in targeting the enemy's "knockoff" fighters whenever possible.
p1026
sVIcon
p1027
Vspvp_premium_gunship
p1028
sa(dp1029
VAvailable
p1030
I01
sVName
p1031
VGSS-4Y Jurgoran
p1032
sVIsCartelMarketShip
p1033
I00
sVFleetRequisitionCost
p1034
I5000
sVJsonPath
p1035
VImperial_GSS-4Y_Jurgoran.json
p1036
sVPreviewImage
p1037
Vimp_gunship_a_gr2
p1038
sVDescription
p1039
VDespite numerous delays caused by local insurgencies, SoroSuub continues production of the GSS-4Y Jurgoran--a gunship designed for survivability on battlefields where keeping foes at a distance isn't feasible. Along with its basic railgun, the Jurgoran can switch to ship-to-ship missiles in mid-combat and unleash volleys from enhanced close-range laser cannons. Additional speed, maneuverability and equipment options over the GSS-3 Mangler make the Jurgoran ready and able to finish off damaged foes or escape from enemies who may be closing in.
p1040
sVIcon
p1041
Vspvp_imp_gunship_1
p1042
sa(dp1043
VAvailable
p1044
I01
sVName
p1045
VGSS-5C Dustmaker
p1046
sVIsCartelMarketShip
p1047
I00
sVFleetRequisitionCost
p1048
I5000
sVJsonPath
p1049
VImperial_GSS-5C_Dustmaker.json
p1050
sVPreviewImage
p1051
Vimp_gunship_c_gr2
p1052
sVDescription
p1053
VThe G-2A gunship razed whole cities on Sullust when the Empire conquered that planet. Therefore, Sullustan manufacturer SoroSuub was given the honor of designing the G-2A's successor. The GSS-5C Dustmaker gunship carries only a basic railgun but can equip heavy lasers and proton torpedoes to enact devastation from afar. While its defenses are less formidable than those of other gunships, the Dustmaker's unmatched firepower more than makes up for it in the minds of most pilots.
p1054
sVIcon
p1055
Vspvp_imp_gunship_2
p1056
sa(dp1057
VAvailable
p1058
I01
sVName
p1059
VGSS-3 Mangler
p1060
sVIsCartelMarketShip
p1061
I00
sVFleetRequisitionCost
p1062
I2500
sVJsonPath
p1063
VImperial_GSS-3_Mangler.json
p1064
sVPreviewImage
p1065
Vimp_gunship_b_gr2
p1066
sVDescription
p1067
VAfter the Empire's conquest of Sullust, Imperial engineers put several local SoroSuub factories to work creating starfighter parts. The SoroSuub-built GSS-3 Mangler sports two kinds of swappable railguns, strafes relatively rapidly and has an augmented communications range. Its defenses are more than acceptable, while its weaknesses--unimpressive sensors, speed, and turning rate--are standard for the class. Rumor has it that one Mandalorian clan even requested Manglers for payment when the Empire bought its services.
p1068
sVIcon
p1069
Vspvp_imp_gunship_3
p1070
sasVCategoryName
p1071
VGunship
p1072
sa(dp1073
VShips
p1074
(lp1075
(dp1076
VAvailable
p1077
I00
sVName
p1078
VICA-2B Frostburn
p1079
sVIsCartelMarketShip
p1080
I00
sVFleetRequisitionCost
p1081
I2500
sVJsonPath
p1082
VImperial_ICA-2B_Frostburn.json
p1083
sVPreviewImage
p1084
Vimp_infiltrator_b_gr2
p1085
sVDescription
p1086
VThe Chiss Ascendancy and the Sith Empire co-developed much of their basic stealth technology (without which cloaking devices would be useless), and construction of the ICA-2B Frostburn is performed deep in Chiss space. The Frostburn is the infiltrator against which all others are matched, able to cloak and interfere with enemy sensors, close in on a foe, and eliminate that foe with powerful short-range primary and secondary weapons. A pilot who fails to execute an enemy quickly, however, must be mindful of the vessel's weak shielding.
p1087
sVIcon
p1088
Vspvp_imp_infiltrator_2
p1089
sa(dp1090
VAvailable
p1091
I00
sVName
p1092
VICA-3A - Sable Claw
p1093
sVIsCartelMarketShip
p1094
I00
sVFleetRequisitionCost
p1095
I5000
sVJsonPath
p1096
VImperial_ICA-3A_-_Sable_Claw.json
p1097
sVPreviewImage
p1098
Vimp_infiltrator_c_gr2
p1099
sVDescription
p1100
VLike the ICA-2B, the ICA-3A Sable Claw is built in Chiss space--but unlike other infiltrator-class ships, the Sable Claw is designed to couple stealth tactics with dogfighting techniques. The Sable Claw has improved defenses, carries more versatile primary weapons and can equip a variety of secondaries other infiltrators cannot (including long-range ship-to-ship missiles). What the Sable Claw gains in combat capability, it loses in sensor capacity and maneuverability; its cloak, however, remains the key to victory.
p1101
sVIcon
p1102
Vspvp_imp_infiltrator_1
p1103
sa(dp1104
VAvailable
p1105
I00
sVName
p1106
VICA-X Tormentor
p1107
sVIsCartelMarketShip
p1108
I00
sVFleetRequisitionCost
p1109
I5000
sVJsonPath
p1110
VImperial_ICA-X_Tormentor.json
p1111
sVPreviewImage
p1112
Vimp_infiltrator_a_gr2
p1113
sVDescription
p1114
VDarth Mekhis herself developed the prototype for the ICA-X Tormentor and instructed Chiss engineers on how to bring her fearsome vision to life. This infiltrator-class vessel eschews high-damage secondary weapons in favor of weapons that disable, and it can be equipped with a wide array of technologies designed to baffle foes' sensors. Perhaps most notable is the Tormentor's cloaking field, which can extend to encompass allies--allowing the use of terrifying, otherwise impossible team tactics.
p1115
sVIcon
p1116
Vspvp_imp_infiltrator_1
p1117
sasVCategoryName
p1118
VInfiltrator
p1119
sa(dp1120
VShips
p1121
(lp1122
(dp1123
VAvailable
p1124
I01
sVName
p1125
VS-SC4 Bloodmark
p1126
sVIsCartelMarketShip
p1127
I00
sVFleetRequisitionCost
p1128
I5000
sVJsonPath
p1129
VImperial_S-SC4_Bloodmark.json
p1130
sVPreviewImage
p1131
Vimp_scout_c_gr2
p1132
sVDescription
p1133
VImperial starfighter squadrons drill relentlessly so that their pilots fly and fight with a single mind. For ultimate coordination, the Tandankin shipyards S-SC4 Bloodmark is practically a necessity. Sacrificing some speed and maneuverability along with ship-to-ship missiles in exchange for some of the galaxy's best sensors and communications technology, the Bloodmark also possesses unique subsystems for improved battlefield awareness. A squadron containing an expert Bloodmark pilot can act with greater efficiency than any other.
p1134
sVIcon
p1135
Vspvp_imp_scout_2
p1136
sa(dp1137
VAvailable
p1138
I01
sVName
p1139
VS-12 Blackbolt
p1140
sVIsCartelMarketShip
p1141
I00
sVFleetRequisitionCost
p1142
I2500
sVJsonPath
p1143
VImperial_S-12_Blackbolt.json
p1144
sVPreviewImage
p1145
Vimp_scout_b_gr2
p1146
sVDescription
p1147
VThe Imperial Tandankin shipyards produce a small number of elite scout craft used for both reconnaissance and lightning strikes. The S-12 Blackbolt combines extraordinary speed, maneuverability and strafing capacity with powerful sensors and communications rigs. Enemies can be spotted early and their locations relayed to allies--or a Blackbolt pilot can take foes on directly with short- and mid-range laser cannons. Stationary objectives are prime targets for the Blackbolt's rockets. The Blackbolt has only bare-bones defenses, however, with weak shields and a thin, unarmored hull. For that reason, Blackbolt pilots often earn reputations as thrill-seekers or suicidal fools (or sometimes both).
p1148
sVIcon
p1149
Vspvp_imp_scout_1
p1150
sa(dp1151
VAvailable
p1152
I01
sVName
p1153
VS-13 Sting
p1154
sVIsCartelMarketShip
p1155
I00
sVFleetRequisitionCost
p1156
I5000
sVJsonPath
p1157
VImperial_S-13_Sting.json
p1158
sVPreviewImage
p1159
Vimp_scout_a_gr2
p1160
sVDescription
p1161
VThe shipyards of Tandankin have served the Imperial war machine for decades, specializing in experimental designs. With its array of laser cannons, ship-to-ship missiles, and hardened armor and shields, the Tandankin-built S-13 Sting barely qualifies as a scout, but it maintains considerable sensor and communications range diminished only in comparison to other scout-class vessels. Its weapons and defenses still don't match those of a full strike fighter, but it can be just as deadly in the right hands.
p1162
sVIcon
p1163
Vspvp_imp_scout_3
p1164
sa(dp1165
VAvailable
p1166
I01
sVName
p1167
VIL-5 Ocula
p1168
sVIsCartelMarketShip
p1169
I01
sVFleetRequisitionCost
p1170
I0
sVJsonPath
p1171
VImperial_IL-5_Ocula.json
p1172
sVPreviewImage
p1173
Vspvp_neu_shuttle_a_gr2
p1174
sVDescription
p1175
VThe Czerka IL-5 Ocula was the company's first entry into the modern scout starfighter field, and utilizes a number of proprietary miniaturization techniques to ensure that nearly all popular internal components can be accommodated. Imperial military officials have shown a particular fondness for the design, ordering thousands of the craft through intermediaries while Czerka executives turn a blind eye. Imperial pilots often employ the craft on long-range reconnaissance missions into territories where their standard scout ships would be quickly recognized.
p1176
sVIcon
p1177
Vspvp_premium_scout
p1178
sasVCategoryName
p1179
VScout
p1180
sa(dp1181
VShips
p1182
(lp1183
(dp1184
VAvailable
p1185
I01
sVName
p1186
VFT-3C Imperium
p1187
sVIsCartelMarketShip
p1188
I00
sVFleetRequisitionCost
p1189
I5000
sVJsonPath
p1190
VImperial_FT-3C_Imperium.json
p1191
sVPreviewImage
p1192
Vimp_striker_c_gr2
p1193
sVDescription
p1194
VAlthough its design is derived from the FT-2 Quell, the Dromund Kalakar-built FT-3C Imperium lacks some of its counterpart's speed and maneuverability. Instead, the Imperium carries heavy defenses, state-of-the-art sensors and command-and-control systems--it is the pivot around which a squadron turns, bolstering and coordinating allies while under fire. Its secondary weapons are oriented toward eliminating armored objectives instead of dogfighting; Imperium pilots are conquerors first and warriors second.
p1195
sVIcon
p1196
Vspvp_imp_striker_3
p1197
sa(dp1198
VAvailable
p1199
I01
sVName
p1200
VF-T6 Rycer
p1201
sVIsCartelMarketShip
p1202
I00
sVFleetRequisitionCost
p1203
I2500
sVJsonPath
p1204
VImperial_F-T6_Rycer.json
p1205
sVPreviewImage
p1206
Vimp_striker_a_gr2
p1207
sVDescription
p1208
VThe ultimate Imperial dogfighter, the F-T6 Rycer (named for an ace Imperial pilot of the last war) is a product of the Dromund Kalakar shipyards. The Rycer can be fitted with two primary blasters from an arsenal of options, including multiple laser and ion cannons; properly equipped, it can destroy or disable foes at any range. The Rycer is even more maneuverable than most strike fighters, but its defenses are less formidable-a fair trade, according to its pilots.
p1209
sVIcon
p1210
Vspvp_imp_striker_1
p1211
sa(dp1212
VAvailable
p1213
I01
sVName
p1214
VF-T2 Quell
p1215
sVIsCartelMarketShip
p1216
I00
sVFleetRequisitionCost
p1217
I5000
sVJsonPath
p1218
VImperial_F-T2_Quell.json
p1219
sVPreviewImage
p1220
Vimp_striker_b_gr2
p1221
sVDescription
p1222
VTradition is as important as innovation at the Dromund Kalakar shipyards, and each new design must also honor the past. The F-T2 Quell brings an old name to a fresh exemplar of strike fighter design, possessing speed, maneuverability and good defenses coupled with twin secondary weapon systems that can be switched over mid-combat. This flexibility enables a Quell to carry (for example) both ship-to-ship missiles and torpedoes, allowing it to take on both enemy vessels and stationary objectives.
p1223
sVIcon
p1224
Vspvp_imp_striker_2
p1225
sa(dp1226
VAvailable
p1227
I01
sVName
p1228
VTZ-24 Gladiator
p1229
sVIsCartelMarketShip
p1230
I01
sVFleetRequisitionCost
p1231
I0
sVJsonPath
p1232
VImperial_TZ-24_Gladiator.json
p1233
sVPreviewImage
p1234
Vspvp_neu_dropship_a_gr2
p1235
sVDescription
p1236
VAs a venerable starfighter design sold to security forces on many of the worlds conquered by the Empire, uncountable thousands of TZ-24 Gladiators have fallen into Imperial hands over the years. Adapted from the larger TZ-2 transport, the Enforcer was designed to serve as a rugged, no-frills combat fighter for long campaigns in remote regions. The Empire has done little to alter the model given its excellent performance record, and regularly fields the Enforcer alongside its standard starfighter complements.
p1237
sVIcon
p1238
Vspvp_premium_striker
p1239
sasVCategoryName
p1240
VStrike Fighter
p1241
sasVMagazine
p1242
(lp1243
(dp1244
VAvailable
p1245
I01
sVBase
p1246
(dp1247
VStats
p1248
(dp1249
V[Pc]Power_Weapon_Regen_Rate_(when_Recently_Consumed)
p1250
F0.080000000000000002
sV[Pc]Power_Weapon_Regen_Rate
p1251
F0.080000000000000002
ssVName
p1252
VBlaster Power Regeneration
p1253
sVCooldown
p1254
F0
sVActive
p1255
I00
sVDescription
p1256
VBlaster power pool regeneration increased by 8%.
p1257
sVIcon
p1258
Vspvp_weaponpowerregeneration
p1259
ssVStats
p1260
(dp1261
sVName
p1262
VRegeneration Extender
p1263
sVDefault
p1264
I00
sVShipRequisitionCost
p1265
I1000
sVHasControllerStats
p1266
I00
sVTalentTree
p1267
(lp1268
(lp1269
(dp1270
VTarget
p1271
V
sVIcon
p1272
Vspvp_weaponpowerregeneration
p1273
sVStats
p1274
(dp1275
V[Pc]Power_Weapon_Regen_Rate_(when_Recently_Consumed)
p1276
F0.040000000000000001
sV[Pc]Power_Weapon_Regen_Rate
p1277
F0.040000000000000001
ssVName
p1278
VIncreased Regeneration
p1279
sVDescription
p1280
VBlaster power pool regeneration increased by an additional 4%.
p1281
saa(lp1282
(dp1283
VTarget
p1284
V
sVIcon
p1285
Vspvp_weaponpowerregeneration
p1286
sVStats
p1287
(dp1288
V[Pc]Power_Weapon_Regen_Rate_(when_Recently_Consumed)
p1289
F0.040000000000000001
sV[Pc]Power_Weapon_Regen_Rate
p1290
F0.040000000000000001
ssVName
p1291
VIncreased Regeneration
p1292
sVDescription
p1293
VBlaster power pool regeneration increased by an additional 4%.
p1294
saa(lp1295
(dp1296
VTarget
p1297
V
sVIcon
p1298
Vspvp_weaponpowerregeneration
p1299
sVStats
p1300
(dp1301
V[Pc]Power_Weapon_Regen_Rate_(when_Recently_Consumed)
p1302
F0.040000000000000001
sV[Pc]Power_Weapon_Regen_Rate
p1303
F0.040000000000000001
ssVName
p1304
VIncreased Regeneration
p1305
sVDescription
p1306
VBlaster power pool regeneration increased by an additional 4%.
p1307
saasVTalentRowCosts
p1308
(lp1309
I1000
aI1500
aI2500
asVDescription
p1310
VAfter a lengthy development time, GSI's RAPID weapon power regeneration technology took the arms industry by storm. The RAPID magazine component increases a ship's weapon power regeneration rate by essentially "recycling" extra heat generated by weapon stabilizers.
p1311
sVIcon
p1312
Vspvp_weaponpowerregeneration
p1313
sa(dp1314
VAvailable
p1315
I01
sVBase
p1316
(dp1317
VStats
p1318
(dp1319
V[Pc]Ammo_Pool_Size
p1320
F0.20000000000000001
ssVName
p1321
VExtended Magazine
p1322
sVCooldown
p1323
F0
sVActive
p1324
I00
sVDescription
p1325
VAmmunition capacity increased by 20%.
p1326
sVIcon
p1327
Vspvp_spvp_ammocapacity
p1328
ssVStats
p1329
(dp1330
sVName
p1331
VMunitions Capacity Extender
p1332
sVDefault
p1333
I00
sVShipRequisitionCost
p1334
I1000
sVHasControllerStats
p1335
I00
sVTalentTree
p1336
(lp1337
(lp1338
(dp1339
VTarget
p1340
VSecondaryWeapons
p1341
sVIcon
p1342
Vspvp_spvp_ammocapacity
p1343
sVStats
p1344
(dp1345
V[Pc]Ammo_Pool_Size
p1346
F0.10000000000000001
ssVName
p1347
VIncreased Ammo Capacity
p1348
sVDescription
p1349
VAmmunition capacity increased by an additional 10%.
p1350
saa(lp1351
(dp1352
VTarget
p1353
VSecondaryWeapons
p1354
sVIcon
p1355
Vspvp_spvp_ammocapacity
p1356
sVStats
p1357
(dp1358
V[Pc]Ammo_Pool_Size
p1359
F0.10000000000000001
ssVName
p1360
VIncreased Ammo Capacity
p1361
sVDescription
p1362
VAmmunition capacity increased by an additional 10%.
p1363
saa(lp1364
(dp1365
VTarget
p1366
VSecondaryWeapons
p1367
sVIcon
p1368
Vspvp_spvp_ammocapacity
p1369
sVStats
p1370
(dp1371
V[Pc]Ammo_Pool_Size
p1372
F0.10000000000000001
ssVName
p1373
VIncreased Ammo Capacity
p1374
sVDescription
p1375
VAmmunition capacity increased by an additional 10%.
p1376
saasVTalentRowCosts
p1377
(lp1378
I1000
aI1500
aI2500
asVDescription
p1379
VElsinore-Cordova's CAR-X4 ordnance magazine component increases the ammunition capacity of a ship's secondary weapons. This feat is accomplished not by adding extra storage space, but by using suppressors and repulsors to render ammunition inert and lightweight while in storage--allowing missiles and other weapons to be packed safely and tightly together.
p1380
sVIcon
p1381
Vspvp_spvp_ammocapacity
p1382
sa(dp1383
VAvailable
p1384
I01
sVBase
p1385
(dp1386
VStats
p1387
(dp1388
V[Pc]Weapon_Max_Power
p1389
F0.080000000000000002
ssVName
p1390
VBlaster Power
p1391
sVCooldown
p1392
F0
sVActive
p1393
I00
sVDescription
p1394
VBlaster power pool increased by 8%.
p1395
sVIcon
p1396
Vspvp_weaponpower
p1397
ssVStats
p1398
(dp1399
sVName
p1400
VPower Pool Extender
p1401
sVDefault
p1402
I01
sVShipRequisitionCost
p1403
I1000
sVHasControllerStats
p1404
I00
sVTalentTree
p1405
(lp1406
(lp1407
(dp1408
VTarget
p1409
V
sVIcon
p1410
Vspvp_weaponpower
p1411
sVStats
p1412
(dp1413
V[Pc]Weapon_Max_Power
p1414
F0.040000000000000001
ssVName
p1415
VIncreased Power
p1416
sVDescription
p1417
VBlaster power pool increased by an additional 4%.
p1418
saa(lp1419
(dp1420
VTarget
p1421
V
sVIcon
p1422
Vspvp_weaponpower
p1423
sVStats
p1424
(dp1425
V[Pc]Weapon_Max_Power
p1426
F0.040000000000000001
ssVName
p1427
VIncreased Power
p1428
sVDescription
p1429
VBlaster power pool increased by an additional 4%.
p1430
saa(lp1431
(dp1432
VTarget
p1433
V
sVIcon
p1434
Vspvp_weaponpower
p1435
sVStats
p1436
(dp1437
V[Pc]Weapon_Max_Power
p1438
F0.040000000000000001
ssVName
p1439
VIncreased Power
p1440
sVDescription
p1441
VBlaster power pool increased by an additional 4%.
p1442
saasVTalentRowCosts
p1443
(lp1444
I1000
aI1500
aI2500
asVDescription
p1445
VThe Merr-Sonn TX-100 weapon power magazine component boosts the ship's maximum weapon power. Popular for use on ships with power-heavy arsenals as well as with pilots who just want an extra edge.
p1446
sVIcon
p1447
Vspvp_weaponpower
p1448
sasVRepublic
p1449
(lp1450
(dp1451
VShips
p1452
(lp1453
(dp1454
VAvailable
p1455
I01
sVName
p1456
VSledgehammer
p1457
sVIsCartelMarketShip
p1458
I00
sVFleetRequisitionCost
p1459
I5000
sVJsonPath
p1460
VRepublic_Sledgehammer.json
p1461
sVPreviewImage
p1462
Vrep_bomber_b_gr2
p1463
sVDescription
p1464
VDesigned primarily for destroying satellites, bunkers and similar armored or immobile objectives, the Elsinore-Cordova Sledgehammer is more maneuverable than other bombers but possesses a somewhat weaker hull. The Sledgehammer can carry either missiles or torpedoes and can be equipped with mines and drones as auxiliary systems; in addition, it can utilize heavy laser cannons. While not an ideal ship for dogfighting, very few structures can survive a fully armed Sledgehammer bearing down.
p1465
sVIcon
p1466
Vspvp_rep_bomber_2
p1467
sa(dp1468
VAvailable
p1469
I01
sVName
p1470
VRampart Mark Four
p1471
sVIsCartelMarketShip
p1472
I00
sVFleetRequisitionCost
p1473
I2500
sVJsonPath
p1474
VRepublic_Rampart_Mark_Four.json
p1475
sVPreviewImage
p1476
Vrep_bomber_c_gr2
p1477
sVDescription
p1478
VElsinore-Cordova's Rampart Mark Four bomber is a minelayer first and foremost. With extended ammunition caches and two distinct types of mines, the Rampart is capable of laying down barricades any squadron would fear to penetrate. Its defenses and primary weapons match the bomber baseline, while it has a moderate sensor range and excellent communications systems.
p1479
sVIcon
p1480
Vspvp_rep_bomber_3
p1481
sa(dp1482
VAvailable
p1483
I01
sVName
p1484
VG-X1 Firehauler
p1485
sVIsCartelMarketShip
p1486
I01
sVFleetRequisitionCost
p1487
I0
sVJsonPath
p1488
VRepublic_G-X1_Firehauler.json
p1489
sVPreviewImage
p1490
Vspvp_neu_starship_condor_a_gr2
p1491
sVDescription
p1492
VA common joke suggests that GSI only produces the Firehauler because it encourages additional sales of their many explosive munitions, but there are very few bomber pilots in the Republic who would turn down the chance to fly one on any given mission. The design has been quick to impress everyone who's taken it for a spin, and GSI's sales projections have only gone up as word of the Firehauler's capabilities has spread among the Republic brass.
p1493
sVIcon
p1494
Vspvp_premium_bomber
p1495
sa(dp1496
VAvailable
p1497
I01
sVName
p1498
VWarcarrier
p1499
sVIsCartelMarketShip
p1500
I00
sVFleetRequisitionCost
p1501
I5000
sVJsonPath
p1502
VRepublic_Warcarrier.json
p1503
sVPreviewImage
p1504
Vrep_bomber_a_gr2
p1505
sVDescription
p1506
VThe Elsinore-Cordova Warcarrier is designed to carry and deploy automated drones to strike at enemies, assist allies and reshape the field of battle. Its basic laser cannons can be augmented by secondary missiles or mines, but while it possesses the bomber class's usual resilience, its ship-to-ship combat abilities remain limited. When properly utilized, a Warcarrier can bring a terrifying range of technologies into play, leaving enemies scrambling to adjust.
p1507
sVIcon
p1508
Vspvp_rep_bomber_1
p1509
sasVCategoryName
p1510
VBomber
p1511
sa(dp1512
VShips
p1513
(lp1514
(dp1515
VAvailable
p1516
I01
sVName
p1517
VK-52 Strongarm
p1518
sVIsCartelMarketShip
p1519
I01
sVFleetRequisitionCost
p1520
I0
sVJsonPath
p1521
VRepublic_K-52_Strongarm.json
p1522
sVPreviewImage
p1523
Vspvp_neu_heavy_utility_starship_a_gr2
p1524
sVDescription
p1525
VRepublic forces have increasingly recruited additional support from privateers, mercenaries, and other nonmilitary sources. These "free spirited" individuals often take great pride in their personal craft, with the Hyrotii K-52 Strongarm being one of the most popular. After seeing the gunship in action, Republic officials have been quite impressed, and authorized the ship as a valid alternative for individuals or squadrons that can manage to afford them.
p1526
sVIcon
p1527
Vspvp_premium_heavy
p1528
sa(dp1529
VAvailable
p1530
I01
sVName
p1531
VSGS-45 Quarrel
p1532
sVIsCartelMarketShip
p1533
I00
sVFleetRequisitionCost
p1534
I2500
sVJsonPath
p1535
VRepublic_SGS-45_Quarrel.json
p1536
sVPreviewImage
p1537
Vrep_gunship_b_gr2
p1538
sVDescription
p1539
VThe Sienar SGS-45 Quarrel carries swappable models of long-range railguns, giving it versatility as well as firepower. Its speed and maneuverability sit at the unimpressive gunship baseline, but it can strafe quickly and it has an impressive communications range. Hotshot dogfighters occasionally sneer at the Quarrel's "workmanlike" build--until they see a skilled gunner devastate an enemy squadron without taking a single hit.
p1540
sVIcon
p1541
Vspvp_rep_gunship_1
p1542
sa(dp1543
VAvailable
p1544
I01
sVName
p1545
VSGS-41B Comet Breaker
p1546
sVIsCartelMarketShip
p1547
I00
sVFleetRequisitionCost
p1548
I5000
sVJsonPath
p1549
VRepublic_SGS-41B_Comet_Breaker.json
p1550
sVPreviewImage
p1551
Vrep_gunship_c_gr2
p1552
sVDescription
p1553
VFor pilots who want an armory packed into a starfighter, Sienar offers the SGS-41B Comet Breaker (so named after an accidental weapons discharge during testing). The Comet Breaker lacks the multiple railgun types of the Quarrel, but can equip heavy laser cannons and proton torpedoes to deal extra damage at range. Its defenses are also slightly reduced from the gunship baseline--but for Comet Breaker pilots, worrying about defense misses the whole point.
p1554
sVIcon
p1555
Vspvp_rep_gunship_2
p1556
sa(dp1557
VAvailable
p1558
I01
sVName
p1559
VSGS-S1 Condor
p1560
sVIsCartelMarketShip
p1561
I00
sVFleetRequisitionCost
p1562
I5000
sVJsonPath
p1563
VRepublic_SGS-S1_Condor.json
p1564
sVPreviewImage
p1565
Vrep_gunship_a_gr2
p1566
sVDescription
p1567
VSienar spent a decade perfecting the SGS-S1 Condor before introducing it to the Republic Navy. The result is a gunship with survivability and limited close-combat capability--while its sensor range and ammunition capacity is less than that of similar ships, it can switch its secondary weapon to dogfighting missiles and has access to more powerful short-range laser cannons. The Condor is also faster and more maneuverable than its counterparts and can equip a variety of shields and engines. While it's still not built for prolonged dogfights, it can effectively finish off damaged foes or escape to safety when an enemy squadron closes in.
p1568
sVIcon
p1569
Vspvp_rep_gunship_3
p1570
sa(dp1571
VAvailable
p1572
I01
sVName
p1573
VVX-9 Redeemer
p1574
sVIsCartelMarketShip
p1575
I01
sVFleetRequisitionCost
p1576
I0
sVJsonPath
p1577
VRepublic_VX-9_Redeemer.json
p1578
sVPreviewImage
p1579
Vspvp_neu_starship_ricker_a_gr2
p1580
sVDescription
p1581
VAfter Republic pilots first encountered the Empire's VX-9 Mailoc gunship in battle, their first request was that their superiors get them  "a ship like that!" The Strategic Information Service volunteered to do just that, undertaking a lengthy and complex operation to infiltrate the Dromund Kalakar shipyards and acquire the Mailoc's design specifications. The mission was a complete success, and Republic pilots have gladly employed the Redeemer against its original designers in battle ever since.
p1582
sVIcon
p1583
Vspvp_premium_gunship
p1584
sasVCategoryName
p1585
VGunship
p1586
sa(dp1587
VShips
p1588
(lp1589
(dp1590
VAvailable
p1591
I00
sVName
p1592
VX5-Whisper
p1593
sVIsCartelMarketShip
p1594
I00
sVFleetRequisitionCost
p1595
I2500
sVJsonPath
p1596
VRepublic_X5-Whisper.json
p1597
sVPreviewImage
p1598
Vrep_infiltrator_b_gr2
p1599
sVDescription
p1600
VRumors suggest extensive collaboration between the Republic SIS and Kuat Drive Yards during the design of the X5-Whisper--a collaboration which supposedly excluded the Republic Navy. But regardless of its origins, the Whisper is a deadly assassin of a starfighter, possessing powerful short-range primary and secondary weapons along with its cloak and sensor interference systems. When used correctly, a Whisper can hunt down isolated targets, eliminate them at point-blank range, then vanish back into stealth.
p1601
sVIcon
p1602
Vspvp_rep_infiltrator_2
p1603
sa(dp1604
VAvailable
p1605
I00
sVName
p1606
VX7-Mirage
p1607
sVIsCartelMarketShip
p1608
I00
sVFleetRequisitionCost
p1609
I5000
sVJsonPath
p1610
VRepublic_X7-Mirage.json
p1611
sVPreviewImage
p1612
Vrep_infiltrator_a_gr2
p1613
sVDescription
p1614
VThe Kuat Drive Yards X7-Mirage is built to cause chaos, using a variety of prototype technologies to wreak havoc on enemy sensors. Its cloaking field is even capable of hiding allies, allowing a Mirage pilot to coordinate a whole squadron executing an ambush. The Mirage's raw damage output is less than that of its peers, however--its secondary weapons are oriented toward disabling, not destroying. Note that officially, the existence of the Mirage is still classified by the Republic Navy.
p1615
sVIcon
p1616
Vspvp_rep_infiltrator_1
p1617
sa(dp1618
VAvailable
p1619
I00
sVName
p1620
VBanshee
p1621
sVIsCartelMarketShip
p1622
I00
sVFleetRequisitionCost
p1623
I5000
sVJsonPath
p1624
VRepublic_Banshee.json
p1625
sVPreviewImage
p1626
Vrep_infiltrator_c_gr2
p1627
sVDescription
p1628
VMuch to the surprise of competitors, Corellia StarDrive recently agreed to co-develop with Kuat Drive Yards a combat-hardened version of the infiltrator class. The Banshee (named for a Corellian bird of prey) carries versatile primary weapons and can equip a wide array of secondaries--including long-range ship-to-ship missiles, rewriting the rules of engagement for infiltrators. Additional defenses help keep Banshees in the fight, but their maneuverability and sensors can't match those of infiltrators such as the X7-Mirage or the X5-Whisper.
p1629
sVIcon
p1630
Vspvp_rep_infiltrator_4
p1631
sasVCategoryName
p1632
VInfiltrator
p1633
sa(dp1634
VShips
p1635
(lp1636
(dp1637
VAvailable
p1638
I01
sVName
p1639
VNovaDive
p1640
sVIsCartelMarketShip
p1641
I00
sVFleetRequisitionCost
p1642
I2500
sVJsonPath
p1643
VRepublic_NovaDive.json
p1644
sVPreviewImage
p1645
Vrep_scout_b_gr2
p1646
sVDescription
p1647
VThe centerpiece of Corellia StarDrive's scout ship line, the NovaDive is designed to provide the ideal balance of reconnaissance and offensive capabilities. Advanced sensor and communications suites allow NovaDive pilots to quickly spot enemy craft and relay their positions to allies, while mountings for short- and mid-range laser cannons and rocket pods ensure that the craft can hold its own against enemy fighters and even strike at armored objectives. Unfortunately, defensive systems are meager at best; veteran pilots have learned to rely more on the NovaDive's speed and maneuverability than its shields or armor to survive tough engagements.
p1648
sVIcon
p1649
Vspvp_rep_scout_1
p1650
sa(dp1651
VAvailable
p1652
I01
sVName
p1653
VSpearpoint
p1654
sVIsCartelMarketShip
p1655
I00
sVFleetRequisitionCost
p1656
I5000
sVJsonPath
p1657
VRepublic_Spearpoint.json
p1658
sVPreviewImage
p1659
Vrep_scout_c_gr2
p1660
sVDescription
p1661
VOutsourcing dozens of components to sensor manufacturers previously focused on the scientific market, Corellia StarDrive managed to assemble the Spearpoint scout ship--a vessel whose sensors and communications equipment outperform practically every other ship on the market, including other scouts. The Spearpoint also possesses auxiliary systems designed to coordinate and support an entire squadron, offering fellow pilots a clear view of the battlefield. These enhancements come at the cost of some of the scout class's traditional maneuverability and speed, however, and also sacrifices some internal storage space.
p1662
sVIcon
p1663
Vspvp_rep_scout_2
p1664
sa(dp1665
VAvailable
p1666
I01
sVName
p1667
VFlashfire
p1668
sVIsCartelMarketShip
p1669
I00
sVFleetRequisitionCost
p1670
I5000
sVJsonPath
p1671
VRepublic_Flashfire.json
p1672
sVPreviewImage
p1673
Vrep_scout_a_gr2
p1674
sVDescription
p1675
VWhen Corellia StarDrive appeared on the verge of losing its military contract, the company refocused on a new scout model--one that would trade away sensor and communications range along with specialized sensor tech in return for more powerful laser cannons, mid-range missiles and stronger defenses across the board. The result is the Flashfire, combining other scouts' speed with deadly offensive capabilities. A Flashfire may not compete head-on against a strike fighter, but its maneuverability may be the edge a skilled pilot needs.
p1676
sVIcon
p1677
Vspvp_rep_scout_3
p1678
sa(dp1679
VAvailable
p1680
I01
sVName
p1681
VIL-5 Skybolt
p1682
sVIsCartelMarketShip
p1683
I01
sVFleetRequisitionCost
p1684
I0
sVJsonPath
p1685
VRepublic_IL-5_Skybolt.json
p1686
sVPreviewImage
p1687
Vspvp_neu_shuttle_a_gr2
p1688
sVDescription
p1689
VAlthough the Republic military officially passed on Czerka's IL-5 Skybolt in favor of designs from Corellia StarDrive, a number of  regional governors and "flexible" fleet admirals have made the craft a common sight on Republic flight decks nonetheless. Flight crews have a great appreciation for the ease of installing a huge variety of aftermarket components (a rare feature from Czerka), and many pilots have come to favor the design over their standard-issue scout models.
p1690
sVIcon
p1691
Vspvp_premium_scout
p1692
sasVCategoryName
p1693
VScout
p1694
sa(dp1695
VShips
p1696
(lp1697
(dp1698
VAvailable
p1699
I01
sVName
p1700
VFT-8 Star Guard
p1701
sVIsCartelMarketShip
p1702
I00
sVFleetRequisitionCost
p1703
I2500
sVJsonPath
p1704
VRepublic_FT-8_Star_Guard.json
p1705
sVPreviewImage
p1706
Vrep_striker_a_gr2
p1707
sVDescription
p1708
VRendili has been producing Republic starfighters for centuries, and the FT-8 Star Guard is the company's latest achievement--a complete redesign of the FT-5A Honor Guard model. The Star Guard carries two primary blasters and gains maneuverability over other strike fighter-class ships at the cost of defensive strength. The Star Guard can support an array of laser and ion cannons that allow it to engage foes at multiple distances, but its lack of heavy ordnance makes it less effective against armored objectives. When it comes to dogfighting, however, there may be no finer ship in the galaxy.
p1709
sVIcon
p1710
Vspvp_rep_striker_1
p1711
sa(dp1712
VAvailable
p1713
I01
sVName
p1714
VTZ-24 Enforcer
p1715
sVIsCartelMarketShip
p1716
I01
sVFleetRequisitionCost
p1717
I0
sVJsonPath
p1718
VRepublic_TZ-24_Enforcer.json
p1719
sVPreviewImage
p1720
Vspvp_neu_dropship_a_gr2
p1721
sVDescription
p1722
VDesigned before the start of the Great Galactic War, the TZ-24 Enforcer remains a highly popular design, and serves as the mainstay of dozens of planetary defense forces throughout the Republic. The ship's designers took great pride in the rugged simplicity of their design, hoping it would provide long years of use even the galaxy's most remote sectors. Given its extended history of service with minimal need for upgrades, the model has surely lived up to its designers (and buyers) expectations.
p1723
sVIcon
p1724
Vspvp_premium_striker
p1725
sa(dp1726
VAvailable
p1727
I01
sVName
p1728
VFT-6 Pike
p1729
sVIsCartelMarketShip
p1730
I00
sVFleetRequisitionCost
p1731
I5000
sVJsonPath
p1732
VRepublic_FT-6_Pike.json
p1733
sVPreviewImage
p1734
Vrep_striker_b_gr2
p1735
sVDescription
p1736
VWell-armed, well-armored, and with the speed and maneuverability pilots expect from a strike fighter, the Rendili FT-6 Pike carries two sets of secondary weapons along with its primaries, allowing it (when properly equipped) to swap between ship-to-ship missiles and torpedoes mid-combat. This makes the Pike a versatile fighter, able to eliminate enemy ships and armored objectives in the same attack run. Some starfighter pilots are specialists, but Pike pilots are ready for anything.
p1737
sVIcon
p1738
Vspvp_rep_striker_2
p1739
sa(dp1740
VAvailable
p1741
I01
sVName
p1742
VFT-7B Clarion
p1743
sVIsCartelMarketShip
p1744
I00
sVFleetRequisitionCost
p1745
I5000
sVJsonPath
p1746
VRepublic_FT-7B_Clarion.json
p1747
sVPreviewImage
p1748
Vrep_striker_c_gr2
p1749
sVDescription
p1750
VThe Rendili FT-7B Clarion lacks the weapon capacity of other strike fighters, instead possessing a powerful array of sensors and command-and-control systems that boost overall squadron effectiveness; if a typical strike fighter is a squadron's fist, the Clarion is a squadron's mind and voice. The Clarion also sacrifices a degree of speed and maneuverability in return for heavier defenses, and its secondary weapons are oriented toward eliminating stationary targets and armored objectives.
p1751
sVIcon
p1752
Vspvp_rep_striker_3
p1753
sasVCategoryName
p1754
VStrike Fighter
p1755
sasVSystems
p1756
(lp1757
(dp1758
VAvailable
p1759
I01
sVBase
p1760
(dp1761
VStats
p1762
(dp1763
sVName
p1764
V
sVCooldown
p1765
I0
sVActive
p1766
I00
sVDescription
p1767
V
sVIcon
p1768
V
ssVStats
p1769
(dp1770
sVName
p1771
VIFF Mimic
p1772
sVDefault
p1773
I00
sVShipRequisitionCost
p1774
I2000
sVHasControllerStats
p1775
I00
sVTalentTree
p1776
(lp1777
sVTalentRowCosts
p1778
(lp1779
I1000
aI2500
aI5000
aI10000
aI15000
asVDescription
p1780
VThe 79X04 IFF mimic allows a ship to broadcast a false identification signature, appearing as an ally on enemy sensors for a short duration. Available primarily through Nar Shaddaa black markets, the 79X04 is rumored to be programmed by the Exchange crime syndicate.
p1781
sVIcon
p1782
Vspvp_iffmimic
p1783
sa(dp1784
VAvailable
p1785
I01
sVBase
p1786
(dp1787
VStats
p1788
(dp1789
sVName
p1790
V
sVCooldown
p1791
I0
sVActive
p1792
I00
sVDescription
p1793
V
sVIcon
p1794
V
ssVStats
p1795
(dp1796
sVName
p1797
VDecoy Beacon
p1798
sVDefault
p1799
I00
sVShipRequisitionCost
p1800
I2000
sVHasControllerStats
p1801
I00
sVTalentTree
p1802
(lp1803
sVTalentRowCosts
p1804
(lp1805
I1000
aI2500
aI5000
aI10000
aI15000
asVDescription
p1806
VAppropriately equipped ships can deploy Santhe ECHO-X decoy beacons--unarmed but well-shielded and armored drones that, thanks to holograms and faked sensor signatures, appear identical to the deploying vessel. The decoy is capable of breaking missile locks and drawing fire, but after traveling forward a short distance will hold its position until its power is drained after a moderate time span.
p1807
sVIcon
p1808
Vspvp_decoybeacon
p1809
sa(dp1810
VAvailable
p1811
I01
sVBase
p1812
(dp1813
VStats
p1814
(dp1815
sVName
p1816
V
sVCooldown
p1817
I0
sVActive
p1818
I00
sVDescription
p1819
V
sVIcon
p1820
V
ssVStats
p1821
(dp1822
sVName
p1823
VSensor Shadows
p1824
sVDefault
p1825
I00
sVShipRequisitionCost
p1826
I2000
sVHasControllerStats
p1827
I00
sVTalentTree
p1828
(lp1829
sVTalentRowCosts
p1830
(lp1831
I1000
aI2500
aI5000
aI10000
aI15000
asVDescription
p1832
VA Mirrorshard sensor shadow array allows a ship to appear as multiple vessels flying together on enemy sensors. The Mirrorshard array is manufactured by the Umbaran government, provided to outsiders through treaties and intermediaries.
p1833
sVIcon
p1834
Vspvp_sensorshadows
p1835
sa(dp1836
VAvailable
p1837
I01
sVBase
p1838
(dp1839
VStats
p1840
(dp1841
sVName
p1842
VRemote Slicing
p1843
sVCooldown
p1844
F60
sVActive
p1845
I01
sVDescription
p1846
VTransmits slicing code that disables the target's system ability, and drains 40 points of shield power per second, for 9 seconds.
p1847
sVIcon
p1848
Vspvp_communicationjammed1
p1849
ssVStats
p1850
(dp1851
sVName
p1852
VRemote Slicing
p1853
sVDefault
p1854
I00
sVShipRequisitionCost
p1855
I2000
sVHasControllerStats
p1856
I00
sVTalentTree
p1857
(lp1858
(lp1859
(dp1860
VTarget
p1861
V
sVIcon
p1862
Vspvp_reducedcooldown
p1863
sVStats
p1864
(dp1865
VCooldown_Time
p1866
F-20
ssVName
p1867
VReduced Cooldown
p1868
sVDescription
p1869
VAbility cooldown time reduced by 20 seconds.
p1870
saa(lp1871
(dp1872
VTarget
p1873
V
sVIcon
p1874
Vspvp_reducedpowerdraw2
p1875
sVStats
p1876
(dp1877
sVName
p1878
VIncreased Shield Drain
p1879
sVDescription
p1880
VRemote Slicing drains an additional 15 shield power per second.
p1881
saa(lp1882
(dp1883
VTarget
p1884
V
sVIcon
p1885
Vspvp_increasedduration
p1886
sVStats
p1887
(dp1888
VEffect_Duration
p1889
F3
ssVName
p1890
VIncreased Duration
p1891
sVDescription
p1892
VAbility duration increased by 3 seconds.
p1893
saa(lp1894
(dp1895
VTarget
p1896
V
sVIcon
p1897
Vspvp_powerdrainengine
p1898
sVStats
p1899
(dp1900
sVName
p1901
VEngine Power Reduction
p1902
sVDescription
p1903
VTarget's engine power capacity reduced by 20 while ability is active.
p1904
sa(dp1905
VTarget
p1906
V
sVIcon
p1907
Vspvp_powerdrainweapon
p1908
sVStats
p1909
(dp1910
sVName
p1911
VWeapon Power Reduction
p1912
sVDescription
p1913
VTarget's weapon power capacity reduced by 20 while ability is active.
p1914
saa(lp1915
(dp1916
VTarget
p1917
V
sVIcon
p1918
Vspvp_servojammer
p1919
sVStats
p1920
(dp1921
sVName
p1922
VEngine Supression
p1923
sVDescription
p1924
VTarget cannot use engine abilities while Remote Slicing is active.
p1925
sa(dp1926
VTarget
p1927
V
sVIcon
p1928
Vspvp_shielddisruption
p1929
sVStats
p1930
(dp1931
sVName
p1932
VShield Suppression
p1933
sVDescription
p1934
VTarget cannot use shield abilities while Remote Slicing is active.
p1935
saasVTalentRowCosts
p1936
(lp1937
I1000
aI2500
aI5000
aI10000
aI15000
asVDescription
p1938
VDesigned by the Anomid Schism Collective and widely copied, a NEEDLE remote slicing unit allows a pilot to wreak havoc on a chosen enemy's electronics--draining power and disabling onboard systems outright.
p1939
sVIcon
p1940
Vspvp_communicationjammed1
p1941
sa(dp1942
VAvailable
p1943
I01
sVBase
p1944
(dp1945
VStats
p1946
(dp1947
sVName
p1948
V
sVCooldown
p1949
I0
sVActive
p1950
I00
sVDescription
p1951
V
sVIcon
p1952
V
ssVStats
p1953
(dp1954
sVName
p1955
VEMP Field
p1956
sVDefault
p1957
I01
sVShipRequisitionCost
p1958
I2000
sVHasControllerStats
p1959
I00
sVTalentTree
p1960
(lp1961
sVTalentRowCosts
p1962
(lp1963
I1000
aI2500
aI5000
aI10000
aI15000
asVDescription
p1964
VGSI's EMP-X1 field array emits an electromagnetic pulse-wave that disables all hostile drones and ships' system components within its ample radius for a moderate duration. The pulse-wave will obliterate mines, batter drones, and reduce the effectiveness of starship sensors and targeting systems.
p1965
sVIcon
p1966
Vspvp_jammingfield
p1967
sasVSensor
p1968
(lp1969
(dp1970
VAvailable
p1971
I01
sVBase
p1972
(dp1973
VStats
p1974
(dp1975
VSensor_Detection_Radius
p1976
F20
sVSensor_Focused_Detection_Range
p1977
F20
ssVName
p1978
VIncreased Sensor Range
p1979
sVCooldown
p1980
F0
sVActive
p1981
I00
sVDescription
p1982
VSensor range increased by 2000m.
p1983
sVIcon
p1984
Vspvp_sensorrange
p1985
ssVStats
p1986
(dp1987
sVName
p1988
VRange Sensors
p1989
sVDefault
p1990
I01
sVShipRequisitionCost
p1991
I1000
sVHasControllerStats
p1992
I00
sVTalentTree
p1993
(lp1994
(lp1995
(dp1996
VTarget
p1997
V
sVIcon
p1998
Vspvp_sensorrange
p1999
sVStats
p2000
(dp2001
VSensor_Detection_Radius
p2002
F10
sVSensor_Focused_Detection_Range
p2003
F10
ssVName
p2004
VIncreased Sensor Range
p2005
sVDescription
p2006
VSensor range increased by an additional 1000m.
p2007
saa(lp2008
(dp2009
VTarget
p2010
V
sVIcon
p2011
Vspvp_sensorrange
p2012
sVStats
p2013
(dp2014
VSensor_Detection_Radius
p2015
F10
sVSensor_Focused_Detection_Range
p2016
F10
ssVName
p2017
VIncreased Sensor Range
p2018
sVDescription
p2019
VSensor range increased by an additional 1000m.
p2020
saa(lp2021
(dp2022
VTarget
p2023
V
sVIcon
p2024
Vspvp_sensorrange
p2025
sVStats
p2026
(dp2027
VSensor_Detection_Radius
p2028
F10
sVSensor_Focused_Detection_Range
p2029
F10
ssVName
p2030
VIncreased Sensor Range
p2031
sVDescription
p2032
VSensor range increased by an additional 1000m.
p2033
saasVTalentRowCosts
p2034
(lp2035
I1000
aI1500
aI2500
asVDescription
p2036
VCarbanti United's PN-4 sensor component increases a ship's standard sensor range. The sensor uses technology originally used in deep space exploration missions.
p2037
sVIcon
p2038
Vspvp_sensorrange
p2039
sa(dp2040
VAvailable
p2041
I01
sVBase
p2042
(dp2043
VStats
p2044
(dp2045
VSensor_Communication_Range
p2046
F40
ssVName
p2047
VExtended Communication
p2048
sVCooldown
p2049
F0
sVActive
p2050
I00
sVDescription
p2051
VCommunication range increased by 4000m.
p2052
sVIcon
p2053
Vspvp_communicationrange
p2054
ssVStats
p2055
(dp2056
sVName
p2057
VCommunication Sensors
p2058
sVDefault
p2059
I00
sVShipRequisitionCost
p2060
I1000
sVHasControllerStats
p2061
I00
sVTalentTree
p2062
(lp2063
(lp2064
(dp2065
VTarget
p2066
V
sVIcon
p2067
Vspvp_communicationrange
p2068
sVStats
p2069
(dp2070
VSensor_Communication_Range
p2071
F20
ssVName
p2072
VExtended Communication Range
p2073
sVDescription
p2074
VCommunication range increased by an additional 2000m.
p2075
saa(lp2076
(dp2077
VTarget
p2078
V
sVIcon
p2079
Vspvp_communicationrange
p2080
sVStats
p2081
(dp2082
VSensor_Communication_Range
p2083
F20
ssVName
p2084
VExtended Communication Range
p2085
sVDescription
p2086
VCommunication range increased by an additional 2000m.
p2087
saa(lp2088
(dp2089
VTarget
p2090
V
sVIcon
p2091
Vspvp_communicationrange
p2092
sVStats
p2093
(dp2094
VSensor_Communication_Range
p2095
F20
ssVName
p2096
VExtended Communication Range
p2097
sVDescription
p2098
VCommunication range increased by an additional 2000m.
p2099
saasVTalentRowCosts
p2100
(lp2101
I1000
aI1500
aI2500
asVDescription
p2102
VThe GSI Chatterbox sensor component increases a ship's effective communications range, allowing better tactical coordination inside a squadron. While GSI has not traditionally specialized in communications technology, its acquisition of several failed HoloNet companies recently changed things.
p2103
sVIcon
p2104
Vspvp_communicationrange
p2105
sa(dp2106
VAvailable
p2107
I01
sVBase
p2108
(dp2109
VStats
p2110
(dp2111
VSensor_Dampening
p2112
F16
ssVName
p2113
VIncreased Dampening
p2114
sVCooldown
p2115
F0
sVActive
p2116
I00
sVDescription
p2117
VThe range at which enemies can detect you is decreased by 1600m.
p2118
sVIcon
p2119
Vspvp_sensordampening
p2120
ssVStats
p2121
(dp2122
sVName
p2123
VDampening Sensors
p2124
sVDefault
p2125
I00
sVShipRequisitionCost
p2126
I1000
sVHasControllerStats
p2127
I00
sVTalentTree
p2128
(lp2129
(lp2130
(dp2131
VTarget
p2132
V
sVIcon
p2133
Vspvp_sensordampening
p2134
sVStats
p2135
(dp2136
VSensor_Dampening
p2137
F8
ssVName
p2138
VIncreased Dampening
p2139
sVDescription
p2140
VThe range at which enemies can detect you is decreased by an additional 800m.
p2141
saa(lp2142
(dp2143
VTarget
p2144
V
sVIcon
p2145
Vspvp_sensordampening
p2146
sVStats
p2147
(dp2148
VSensor_Dampening
p2149
F8
ssVName
p2150
VIncreased Dampening
p2151
sVDescription
p2152
VThe range at which enemies can detect you is decreased by an additional 800m.
p2153
saa(lp2154
(dp2155
VTarget
p2156
V
sVIcon
p2157
Vspvp_sensordampening
p2158
sVStats
p2159
(dp2160
VSensor_Dampening
p2161
F8
ssVName
p2162
VIncreased Dampening
p2163
sVDescription
p2164
VThe range at which enemies can detect you is decreased by an additional 800m.
p2165
saasVTalentRowCosts
p2166
(lp2167
I1000
aI1500
aI2500
asVDescription
p2168
VSanthe's LE-8 sensor dampeners allow a ship to get closer to enemy vessels before appearing on foes' sensors. This is achieved through a jamming signal that "piggybacks" on a ship's sensor scans.
p2169
sVIcon
p2170
Vspvp_sensordampening
p2171
sasVDescription
p2172
VThe Kuat Drive Yards X7-Mirage is built to cause chaos, using a variety of prototype technologies to wreak havoc on enemy sensors. Its cloaking field is even capable of hiding allies, allowing a Mirage pilot to coordinate a whole squadron executing an ambush. The Mirage's raw damage output is less than that of its peers, however--its secondary weapons are oriented toward disabling, not destroying. Note that officially, the existence of the Mirage is still classified by the Republic Navy.
p2173
sVEngine
p2174
(lp2175
(dp2176
VAvailable
p2177
I01
sVBase
p2178
(dp2179
VStats
p2180
(dp2181
sVName
p2182
VPower Dive
p2183
sVCooldown
p2184
F15
sVActive
p2185
I01
sVDescription
p2186
VA 90-degree vertical turn, boosting evasion from direct-fire weapons by 24% and preventing missile locks for 3 seconds. Evades lock-on missiles when activated.
p2187
sVIcon
p2188
Vspvp_powerdive
p2189
ssVStats
p2190
(dp2191
sVName
p2192
VPower Dive
p2193
sVDefault
p2194
I00
sVShipRequisitionCost
p2195
I1500
sVHasControllerStats
p2196
I00
sVTalentTree
p2197
(lp2198
(lp2199
(dp2200
VTarget
p2201
V
sVIcon
p2202
Vspvp_reducedpowerdraw
p2203
sVStats
p2204
(dp2205
VAbility_Engine_Cost
p2206
F-0.10000000000000001
ssVName
p2207
VReduced Power Cost
p2208
sVDescription
p2209
VReduces the power cost of activating Power Dive by 10.
p2210
saa(lp2211
(dp2212
VTarget
p2213
V
sVIcon
p2214
Vspvp_reducedcooldown
p2215
sVStats
p2216
(dp2217
VCooldown_Time
p2218
F-5
ssVName
p2219
VReduced Cooldown Time
p2220
sVDescription
p2221
VAbility cooldown time reduced by 5 seconds.
p2222
saa(lp2223
(dp2224
VTarget
p2225
V
sVIcon
p2226
Vspvp_enginespeed
p2227
sVStats
p2228
(dp2229
VEngine_Speed_Multiplier
p2230
F0.10000000000000001
ssVName
p2231
VIncreased Ship Speed
p2232
sVDescription
p2233
VEngine speed increased by 10%.
p2234
sa(dp2235
VTarget
p2236
V
sVIcon
p2237
Vspvp_turningrates
p2238
sVStats
p2239
(dp2240
VTurn_Rate_Modifier
p2241
F0.10000000000000001
ssVName
p2242
VIncreased Turning Rate
p2243
sVDescription
p2244
VShip's turning rate increased by 10%.
p2245
saasVTalentRowCosts
p2246
(lp2247
I1000
aI2500
aI10000
asVDescription
p2248
VBold pilots praise Celestial Industries' Powerhouse engine for its ability to support power dive maneuvers, in which the pilot flips his or her vessel and "dives" in order to shake pursuers and evade lock-on missiles. The maneuver has been known to cause lesser pilots to black out, but those purchasing Powerhouses know what they're in for.
p2249
sVIcon
p2250
V
sa(dp2251
VAvailable
p2252
I01
sVBase
p2253
(dp2254
VStats
p2255
(dp2256
sVName
p2257
VShield Power Converter
p2258
sVCooldown
p2259
F9
sVActive
p2260
I01
sVDescription
p2261
VTransfers 20% of the engine's power to the shield power pool.
p2262
sVIcon
p2263
Vspvp_powertransfertoshields
p2264
ssVStats
p2265
(dp2266
sVName
p2267
VShield Power Converter
p2268
sVDefault
p2269
I01
sVShipRequisitionCost
p2270
I1500
sVHasControllerStats
p2271
I00
sVTalentTree
p2272
(lp2273
(lp2274
(dp2275
VTarget
p2276
V
sVIcon
p2277
Vspvp_reducedcooldown
p2278
sVStats
p2279
(dp2280
VCooldown_Time
p2281
F-3
ssVName
p2282
VReduced Cooldown Time
p2283
sVDescription
p2284
VAbility cooldown time reduced by 3 seconds.
p2285
saa(lp2286
(dp2287
VTarget
p2288
V
sVIcon
p2289
Vspvp_reducedpowerdraw
p2290
sVStats
p2291
(dp2292
V[Pb]Ability_Engine_Cost
p2293
F-0.10000000000000001
ssVName
p2294
VReduced Power Cost
p2295
sVDescription
p2296
VThe cost of using engine component abilities and maneuvers is reduced by 10%.
p2297
saa(lp2298
(dp2299
VTarget
p2300
V
sVIcon
p2301
Vspvp_shieldpower
p2302
sVStats
p2303
(dp2304
V[Pc]Shields_Max_Power_(Capacity)
p2305
F0.14999999999999999
ssVName
p2306
VIncrease Shield Power
p2307
sVDescription
p2308
VShield power pool increased by 15%.
p2309
sa(dp2310
VTarget
p2311
V
sVIcon
p2312
Vspvp_enginepower
p2313
sVStats
p2314
(dp2315
V[Pc]Engines_Max_Power
p2316
F0.14999999999999999
ssVName
p2317
VIncrease Engine Power
p2318
sVDescription
p2319
VEngine power pool increased by 15%.
p2320
saasVTalentRowCosts
p2321
(lp2322
I1000
aI2500
aI10000
asVDescription
p2323
VRather than encouraging fancy flying and ostentatious maneuvers, the Celestial Industries Unbreakable engine system allows pilots to transfer a portion of its engine power to the ship's shield power reserves. Its advertising is simple and direct: "Stronger shields mean a better defense".
p2324
sVIcon
p2325
V
sa(dp2326
VAvailable
p2327
I01
sVBase
p2328
(dp2329
VStats
p2330
(dp2331
sVName
p2332
VRetro Thrusters
p2333
sVCooldown
p2334
F20
sVActive
p2335
I01
sVDescription
p2336
VAccelerates the ship in reverse for a short duration, boosting evasion from direct-fire weapons by 24% and preventing missile locks for 3 seconds. Evades lock-on missiles when activated.
p2337
sVIcon
p2338
Vspvp_retrothrusters
p2339
ssVStats
p2340
(dp2341
sVName
p2342
VRetro Thrusters
p2343
sVDefault
p2344
I00
sVShipRequisitionCost
p2345
I1500
sVHasControllerStats
p2346
I00
sVTalentTree
p2347
(lp2348
(lp2349
(dp2350
VTarget
p2351
V
sVIcon
p2352
Vspvp_reducedpowerdraw
p2353
sVStats
p2354
(dp2355
VAbility_Engine_Cost
p2356
F-0.14999999999999999
ssVName
p2357
VReduced Power Cost
p2358
sVDescription
p2359
VReduces the power cost of activating Retro Thrusters by 15.
p2360
saa(lp2361
(dp2362
VTarget
p2363
V
sVIcon
p2364
Vspvp_reducedcooldown
p2365
sVStats
p2366
(dp2367
VCooldown_Time
p2368
F-5
ssVName
p2369
VReduced Cooldown Time
p2370
sVDescription
p2371
VAbility cooldown time reduced by 5 seconds.
p2372
saa(lp2373
(dp2374
VTarget
p2375
V
sVIcon
p2376
Vspvp_turningrates
p2377
sVStats
p2378
(dp2379
VTurn_Rate_Modifier
p2380
F0.10000000000000001
ssVName
p2381
VIncreased Turning Rate
p2382
sVDescription
p2383
VShip's turning rate increased by 10%.
p2384
sa(dp2385
VTarget
p2386
V
sVIcon
p2387
Vspvp_enginepower
p2388
sVStats
p2389
(dp2390
V[Pc]Engines_Max_Power
p2391
F0.20000000000000001
ssVName
p2392
VIncreased Engine Power
p2393
sVDescription
p2394
VEngine power pool increased by 20%.
p2395
saasVTalentRowCosts
p2396
(lp2397
I1000
aI2500
aI10000
asVDescription
p2398
VElsinore-Cordova's Lukaze Four engine and thruster system stands out for its inclusion of retro thrusters, allowing a ship to briefly accelerate in reverse. The maneuvering ship flies straight backwards, boosting its evasion before resuming its original course (and accelerating back to its forward speed). Named for famed Bothan pilot Ne'wha Lukaze, retro thrusters allow a pilot to slip behind pursuers who get too close.
p2399
sVIcon
p2400
V
sa(dp2401
VAvailable
p2402
I01
sVBase
p2403
(dp2404
VStats
p2405
(dp2406
sVName
p2407
VKoiogran Turn
p2408
sVCooldown
p2409
F20
sVActive
p2410
I01
sVDescription
p2411
VA 180-degree vertical turn, boosting evasion from direct-fire weapons by 24% and preventing missile locks for 3 seconds. Evades lock-on missiles when activated.
p2412
sVIcon
p2413
Vspvp_koiogranturn
p2414
ssVStats
p2415
(dp2416
sVName
p2417
VKoiogran Turn
p2418
sVDefault
p2419
I00
sVShipRequisitionCost
p2420
I1500
sVHasControllerStats
p2421
I00
sVTalentTree
p2422
(lp2423
(lp2424
(dp2425
VTarget
p2426
V
sVIcon
p2427
Vspvp_reducedpowerdraw
p2428
sVStats
p2429
(dp2430
VAbility_Engine_Cost
p2431
F-0.14999999999999999
ssVName
p2432
VReduced Power Cost
p2433
sVDescription
p2434
VReduces the power cost of activating Koiogran Turn by 15.
p2435
saa(lp2436
(dp2437
VTarget
p2438
V
sVIcon
p2439
Vspvp_reducedcooldown
p2440
sVStats
p2441
(dp2442
VCooldown_Time
p2443
F-5
ssVName
p2444
VReduced Cooldown Time
p2445
sVDescription
p2446
VAbility cooldown time reduced by 5 seconds. 
p2447
saa(lp2448
(dp2449
VTarget
p2450
V
sVIcon
p2451
Vspvp_enginespeed
p2452
sVStats
p2453
(dp2454
VEngine_Speed_Multiplier
p2455
F0.10000000000000001
ssVName
p2456
VIncreased Ship Speed
p2457
sVDescription
p2458
VEngine speed increased by 10%.
p2459
sa(dp2460
VTarget
p2461
V
sVIcon
p2462
Vspvp_turningrates
p2463
sVStats
p2464
(dp2465
VTurn_Rate_Modifier
p2466
F0.10000000000000001
ssVName
p2467
VIncreased Turning Rate
p2468
sVDescription
p2469
VShip's turning rate increased by 10%.
p2470
saasVTalentRowCosts
p2471
(lp2472
I1000
aI2500
aI10000
asVDescription
p2473
VUtilizing a high-powered array of maneuvering thrusters, the Czerka K-57B engine system allows starfighters to perform the "Koiogran Turn", a defensive maneuver that quickly turns the ship 180 degrees to face any potential pursuers and return fire without losing speed. This maneuver has the added benefit of evading any missiles that might be locked on.
p2474
sVIcon
p2475
V
sasVReactor
p2476
(lp2477
(dp2478
VAvailable
p2479
I01
sVBase
p2480
(dp2481
VStats
p2482
(dp2483
V[Pc]Power_Shield_Regen_Rate
p2484
F0.080000000000000002
sV[Pc]Power_Shield_Regen_Rate_(when_Recently_Consumed)
p2485
F0.080000000000000002
ssVName
p2486
VShield Power Regeneration Rate
p2487
sVCooldown
p2488
F0
sVActive
p2489
I00
sVDescription
p2490
VShield power pool regeneration rate increased by 8%.
p2491
sVIcon
p2492
Vspvp_shieldpowerregeneration
p2493
ssVStats
p2494
(dp2495
sVName
p2496
VRegeneration Reactor
p2497
sVDefault
p2498
I01
sVShipRequisitionCost
p2499
I1000
sVHasControllerStats
p2500
I00
sVTalentTree
p2501
(lp2502
(lp2503
(dp2504
VTarget
p2505
V
sVIcon
p2506
Vspvp_shieldpowerregeneration
p2507
sVStats
p2508
(dp2509
V[Pc]Power_Shield_Regen_Rate
p2510
F0.040000000000000001
sV[Pc]Power_Shield_Regen_Rate_(when_Recently_Consumed)
p2511
F0.040000000000000001
ssVName
p2512
VIncreased Shield Regen Rate
p2513
sVDescription
p2514
VShield power pool regeneration rate increased by an additional 4%.
p2515
saa(lp2516
(dp2517
VTarget
p2518
V
sVIcon
p2519
Vspvp_shieldpowerregeneration
p2520
sVStats
p2521
(dp2522
V[Pc]Power_Shield_Regen_Rate
p2523
F0.040000000000000001
sV[Pc]Power_Shield_Regen_Rate_(when_Recently_Consumed)
p2524
F0.040000000000000001
ssVName
p2525
VIncreased Shield Regen Rate
p2526
sVDescription
p2527
VShield power pool regeneration rate increased by an additional 4%.
p2528
saa(lp2529
(dp2530
VTarget
p2531
V
sVIcon
p2532
Vspvp_shieldpowerregeneration
p2533
sVStats
p2534
(dp2535
V[Pc]Power_Shield_Regen_Rate
p2536
F0.040000000000000001
sV[Pc]Power_Shield_Regen_Rate_(when_Recently_Consumed)
p2537
F0.040000000000000001
ssVName
p2538
VIncreased Shield Regen Rate
p2539
sVDescription
p2540
VShield power pool regeneration rate increased by an additional 4%.
p2541
saasVTalentRowCosts
p2542
(lp2543
I1000
aI1500
aI2500
asVDescription
p2544
VThe Prexton AUG-4C reactor component increases a ship's shield power regeneration rate, converting reactor fuel into deflector energies more efficiently.
p2545
sVIcon
p2546
Vspvp_shieldpowerregeneration
p2547
sa(dp2548
VAvailable
p2549
I01
sVBase
p2550
(dp2551
VStats
p2552
(dp2553
V[Pc]Shields_Max_Power_(Capacity)
p2554
F0.080000000000000002
ssVName
p2555
VShield Power
p2556
sVCooldown
p2557
F0
sVActive
p2558
I00
sVDescription
p2559
VShield power pool increased by 8%.
p2560
sVIcon
p2561
Vspvp_shieldpower
p2562
ssVStats
p2563
(dp2564
sVName
p2565
VLarge Reactor
p2566
sVDefault
p2567
I00
sVShipRequisitionCost
p2568
I1000
sVHasControllerStats
p2569
I00
sVTalentTree
p2570
(lp2571
(lp2572
(dp2573
VTarget
p2574
V
sVIcon
p2575
Vspvp_shieldpower
p2576
sVStats
p2577
(dp2578
V[Pc]Shields_Max_Power_(Capacity)
p2579
F0.040000000000000001
ssVName
p2580
VIncreased Power
p2581
sVDescription
p2582
VShield power pool increased by an additional 4%.
p2583
saa(lp2584
(dp2585
VTarget
p2586
V
sVIcon
p2587
Vspvp_shieldpower
p2588
sVStats
p2589
(dp2590
V[Pc]Shields_Max_Power_(Capacity)
p2591
F0.040000000000000001
ssVName
p2592
VIncreased Power
p2593
sVDescription
p2594
VShield power pool increased by an additional 4%.
p2595
saa(lp2596
(dp2597
VTarget
p2598
V
sVIcon
p2599
Vspvp_shieldpower
p2600
sVStats
p2601
(dp2602
V[Pc]Shields_Max_Power_(Capacity)
p2603
F0.040000000000000001
ssVName
p2604
VIncreased Power
p2605
sVDescription
p2606
VShield power pool increased by an additional 4%.
p2607
saasVTalentRowCosts
p2608
(lp2609
I1000
aI1500
aI2500
asVDescription
p2610
VBuilt to boost a ship's maximum shield power, the Sirplex SR-09 fulfills its purpose admirably. The reactor component essentially adds a shield reserve onto the reactor itself.
p2611
sVIcon
p2612
Vspvp_shieldpower
p2613
sa(dp2614
VAvailable
p2615
I01
sVBase
p2616
(dp2617
VStats
p2618
(dp2619
V[Pc]Power_Shield_Regen_Delay
p2620
F-0.23999999999999999
ssVName
p2621
VShield Regeneration Delay
p2622
sVCooldown
p2623
F0
sVActive
p2624
I00
sVDescription
p2625
VShield regeneration delay decreased by 24%.
p2626
sVIcon
p2627
Vspvp_shieldregenerationcooldown
p2628
ssVStats
p2629
(dp2630
sVName
p2631
VTurbo Reactor
p2632
sVDefault
p2633
I00
sVShipRequisitionCost
p2634
I1000
sVHasControllerStats
p2635
I00
sVTalentTree
p2636
(lp2637
(lp2638
(dp2639
VTarget
p2640
V
sVIcon
p2641
Vspvp_shieldregenerationcooldown
p2642
sVStats
p2643
(dp2644
V[Pc]Power_Shield_Regen_Delay
p2645
F-0.12
ssVName
p2646
VReduced Regen Delay
p2647
sVDescription
p2648
VShield regeneration delay decreased by an additional 12%.
p2649
saa(lp2650
(dp2651
VTarget
p2652
V
sVIcon
p2653
Vspvp_shieldregenerationcooldown
p2654
sVStats
p2655
(dp2656
V[Pc]Power_Shield_Regen_Delay
p2657
F-0.12
ssVName
p2658
VReduced Regen Delay
p2659
sVDescription
p2660
VShield regeneration delay decreased by an additional 12%.
p2661
saa(lp2662
(dp2663
VTarget
p2664
V
sVIcon
p2665
Vspvp_shieldregenerationcooldown
p2666
sVStats
p2667
(dp2668
V[Pc]Power_Shield_Regen_Delay
p2669
F-0.12
ssVName
p2670
VReduced Regen Delay
p2671
sVDescription
p2672
VShield regeneration delay decreased by an additional 12%.
p2673
saasVTalentRowCosts
p2674
(lp2675
I1000
aI1500
aI2500
asVDescription
p2676
VThe Cygnus Urgent Need reactor component utilizes exotic conductive materials to reduce the time delay that most shield systems require to begin recharging after they've sustained damage.
p2677
sVIcon
p2678
Vspvp_shieldregenerationcooldown
p2679
sasVPrimaryWeapon
p2680
(lp2681
(dp2682
VAvailable
p2683
I00
sVBase
p2684
(dp2685
VStats
p2686
(dp2687
sVName
p2688
V
sVCooldown
p2689
I0
sVActive
p2690
I00
sVDescription
p2691
V
sVIcon
p2692
V
ssVStats
p2693
(dp2694
VlongRangeDamMulti
p2695
F0.51000000000000001
sVmidRangeAccMulti
p2696
F-0.14999999999999999
sVmidRangeDamMulti
p2697
F0.67000000000000004
sVWeapon_Shield_Damage_Multiplier
p2698
F1
sVWeapon_Base_Accuracy
p2699
F1
sVWeapon_Range_Long
p2700
F40
sVWeapon_Reload_Time
p2701
F0
sVWeapon_Range_Mid
p2702
F30
sVWeapon_Lock_On_Time
p2703
F0
sVWeapon_Base_Damage
p2704
F700
sVWeapon_Cooldown_Time_(OBSOLETE)
p2705
F0
sVWeapon_Hull_Damage_Multiplier
p2706
F1
sVlongRangeAccMulti
p2707
F-0.29999999999999999
sVpbRangeAccMulti
p2708
F0.14999999999999999
sVWeapon_Charge_Up_Time
p2709
F0
sVWeapon_Firing_Arc
p2710
F16
sVpbRangeDamMulti
p2711
F1
sVWeapon_Power_Draw
p2712
F15
sVAmmo_Pool_Size
p2713
F0
sVWeapon_Shield_Piercing
p2714
F0
sVCrit_Chance
p2715
F0
sVWeapon_Range_Point_Blank
p2716
F5
sVtrackingAccuracyLoss
p2717
F0.0050000000000000001
sVWeapon_Armor_Penetration
p2718
F0
sVWeapon_Rate_of_Fire
p2719
F1.3333333700000001
sVCrit_Damage_Multiplier
p2720
F0.5
ssVName
p2721
VBurst Laser Cannon
p2722
sVDefault
p2723
I01
sVShipRequisitionCost
p2724
I2000
sVHasControllerStats
p2725
I01
sVTalentTree
p2726
(lp2727
(lp2728
(dp2729
VTarget
p2730
VSelf
p2731
sVIcon
p2732
Vspvp_primaryweapondamage
p2733
sVStats
p2734
(dp2735
V[Pc]Weapon_Base_Damage
p2736
F0.050000000000000003
ssVName
p2737
VIncreased Damage
p2738
sVDescription
p2739
VBlaster damage increased by 5%.
p2740
saa(lp2741
(dp2742
VTarget
p2743
VSelf
p2744
sVIcon
p2745
Vspvp_increasedsystemsdamagechance
p2746
sVStats
p2747
(dp2748
VWeapon_Base_Accuracy
p2749
F0.02
sVCrit_Chance
p2750
F0.050000000000000003
ssVName
p2751
VImproved Targeting
p2752
sVDescription
p2753
VAccuracy increased by 2% and critical hit chance increased by 5%.
p2754
saa(lp2755
(dp2756
VTarget
p2757
VSelf
p2758
sVIcon
p2759
Vspvp_improvedfiringarctrackingbonus
p2760
sVStats
p2761
(dp2762
VWeapon_Tracking_Bonus
p2763
F0.050000000000000003
sVWeapon_Firing_Arc
p2764
F1
ssVName
p2765
VImproved Firing Arc and Tracking
p2766
sVDescription
p2767
VFiring arc increased by 2 degrees, and weapon tracking penalty reduced by 5%.
p2768
saa(lp2769
(dp2770
VTarget
p2771
VSelf
p2772
sVIcon
p2773
Vspvp_ignorearmor
p2774
sVStats
p2775
(dp2776
VWeapon_Armor_Penetration
p2777
F1
ssVName
p2778
VIgnore Armor
p2779
sVDescription
p2780
VBlaster damage ignores 100% of enemy armor.
p2781
sa(dp2782
VTarget
p2783
VSelf
p2784
sVIcon
p2785
Vspvp_shieldpiercing
p2786
sVStats
p2787
(dp2788
VWeapon_Shield_Piercing
p2789
F0.080000000000000002
ssVName
p2790
VShield Piercing
p2791
sVDescription
p2792
VShield piercing increased by 8%.
p2793
saa(lp2794
(dp2795
VTarget
p2796
VSelf
p2797
sVIcon
p2798
Vspvp_damagereduction
p2799
sVStats
p2800
(dp2801
VWeapon_Hull_Damage_Multiplier
p2802
F0.16
ssVName
p2803
VIncreased Hull Damage
p2804
sVDescription
p2805
VBlaster damage to enemy ship hulls increased by 16%.
p2806
sa(dp2807
VTarget
p2808
VSelf
p2809
sVIcon
p2810
Vspvp_shielddisruption
p2811
sVStats
p2812
(dp2813
VWeapon_Shield_Damage_Multiplier
p2814
F0.17999999999999999
ssVName
p2815
VIncreased Shield Damage
p2816
sVDescription
p2817
VBlaster damage to enemy ship shields increased by 18%.
p2818
saasVTalentRowCosts
p2819
(lp2820
I1000
aI2500
aI5000
aI10000
aI15000
asVDescription
p2821
VThe starfighter equivalent of a scattergun, the SoroSuub BLC-2 shoots clusters of high-damage bolts in a wide arc but has a slow rate of fire. Capable of annihilating even fast-moving opponents at close range, its damage drops rapidly with greater distance and it consumes large reserves of power.
p2822
sVIcon
p2823
V
sa(dp2824
VAvailable
p2825
I01
sVBase
p2826
(dp2827
VStats
p2828
(dp2829
sVName
p2830
V
sVCooldown
p2831
I0
sVActive
p2832
I00
sVDescription
p2833
V
sVIcon
p2834
V
ssVStats
p2835
(dp2836
VlongRangeDamMulti
p2837
F0.64000000000000001
sVmidRangeAccMulti
p2838
F-0.10000000000000001
sVmidRangeDamMulti
p2839
F0.79000000000000004
sVWeapon_Shield_Damage_Multiplier
p2840
F1
sVWeapon_Base_Accuracy
p2841
F1
sVWeapon_Range_Long
p2842
F40
sVWeapon_Reload_Time
p2843
F0
sVWeapon_Range_Mid
p2844
F30
sVWeapon_Lock_On_Time
p2845
F0
sVWeapon_Base_Damage
p2846
F325
sVWeapon_Cooldown_Time_(OBSOLETE)
p2847
F0
sVWeapon_Hull_Damage_Multiplier
p2848
F1
sVlongRangeAccMulti
p2849
F-0.20000000000000001
sVpbRangeAccMulti
p2850
F0.10000000000000001
sVWeapon_Charge_Up_Time
p2851
F0
sVWeapon_Firing_Arc
p2852
F14
sVpbRangeDamMulti
p2853
F1
sVWeapon_Power_Draw
p2854
F7
sVAmmo_Pool_Size
p2855
F0
sVWeapon_Shield_Piercing
p2856
F0
sVCrit_Chance
p2857
F0
sVWeapon_Range_Point_Blank
p2858
F5
sVtrackingAccuracyLoss
p2859
F0.01
sVWeapon_Armor_Penetration
p2860
F0
sVWeapon_Rate_of_Fire
p2861
F3
sVCrit_Damage_Multiplier
p2862
F0.5
ssVName
p2863
VLight Laser Cannon
p2864
sVDefault
p2865
I00
sVShipRequisitionCost
p2866
I2000
sVHasControllerStats
p2867
I01
sVTalentTree
p2868
(lp2869
(lp2870
(dp2871
VTarget
p2872
VSelf
p2873
sVIcon
p2874
Vspvp_primaryweapondamage
p2875
sVStats
p2876
(dp2877
V[Pc]Weapon_Base_Damage
p2878
F0.050000000000000003
ssVName
p2879
VIncreased Damage
p2880
sVDescription
p2881
VBlaster damage increased by 5%.
p2882
saa(lp2883
(dp2884
VTarget
p2885
VSelf
p2886
sVIcon
p2887
Vspvp_reducedpowerdraw1
p2888
sVStats
p2889
(dp2890
V[Pc]Weapon_Power_Draw
p2891
F-0.10000000000000001
ssVName
p2892
VReduced Power Cost
p2893
sVDescription
p2894
VThe cost of using blasters is reduced by 10%.
p2895
saa(lp2896
(dp2897
VTarget
p2898
VSelf
p2899
sVIcon
p2900
Vspvp_primaryweaponrof
p2901
sVStats
p2902
(dp2903
V[Pc]Weapon_Rate_of_Fire
p2904
F0.080000000000000002
ssVName
p2905
VIncreased Rate of Fire
p2906
sVDescription
p2907
VBlaster rate of fire increased by 8%.
p2908
saa(lp2909
(dp2910
VTarget
p2911
VSelf
p2912
sVIcon
p2913
Vspvp_increasedsystemsdamagechance
p2914
sVStats
p2915
(dp2916
VCrit_Chance
p2917
F0.080000000000000002
ssVName
p2918
VIncreased Critical Hit Chance
p2919
sVDescription
p2920
VCritical hit chance increased by 8%.
p2921
sa(dp2922
VTarget
p2923
VSelf
p2924
sVIcon
p2925
Vspvp_improvedfiringarctrackingbonus
p2926
sVStats
p2927
(dp2928
VWeapon_Tracking_Bonus
p2929
F0.050000000000000003
sVWeapon_Firing_Arc
p2930
F1
ssVName
p2931
VImproved Firing Arc and Tracking
p2932
sVDescription
p2933
VFiring arc increased by 2 degrees, and weapon tracking penalty reduced by 5%.
p2934
saa(lp2935
(dp2936
VTarget
p2937
VSelf
p2938
sVIcon
p2939
Vspvp_ignorearmor
p2940
sVStats
p2941
(dp2942
VWeapon_Hull_Damage_Multiplier
p2943
F0.16
ssVName
p2944
VIncreased Hull Damage
p2945
sVDescription
p2946
VBlaster damage to enemy ship hulls increased by 16%.
p2947
sa(dp2948
VTarget
p2949
VSelf
p2950
sVIcon
p2951
Vspvp_shieldpiercing
p2952
sVStats
p2953
(dp2954
VWeapon_Shield_Damage_Multiplier
p2955
F0.17999999999999999
ssVName
p2956
VIncreased Shield Damage
p2957
sVDescription
p2958
VBlaster damage to enemy ship shields increased by 18%.
p2959
saasVTalentRowCosts
p2960
(lp2961
I1000
aI2500
aI5000
aI10000
aI15000
asVDescription
p2962
VFavored by pilots who like to fight at close range, Merr-Sonn's LCL-1 light laser cannons are twin-linked for high damage, and increased power consumption. Gunners should be aware that the LCL-1's damage output drops drastically with distance.
p2963
sVIcon
p2964
V
sasVShieldProjector
p2965
(lp2966
(dp2967
VAvailable
p2968
I00
sVBase
p2969
(dp2970
VStats
p2971
(dp2972
sVName
p2973
V
sVCooldown
p2974
I0
sVActive
p2975
I00
sVDescription
p2976
V
sVIcon
p2977
V
ssVStats
p2978
(dp2979
sVName
p2980
V
sVDefault
p2981
I01
sVShipRequisitionCost
p2982
I1500
sVHasControllerStats
p2983
I00
sVTalentTree
p2984
(lp2985
sVTalentRowCosts
p2986
(lp2987
I1000
aI2500
aI10000
asVDescription
p2988
V
sVIcon
p2989
Vspvp_cloakprojector
p2990
sa(dp2991
VAvailable
p2992
I00
sVBase
p2993
(dp2994
VStats
p2995
(dp2996
sVName
p2997
V
sVCooldown
p2998
I0
sVActive
p2999
I00
sVDescription
p3000
V
sVIcon
p3001
V
ssVStats
p3002
(dp3003
sVName
p3004
VCloaking Device
p3005
sVDefault
p3006
I00
sVShipRequisitionCost
p3007
I1500
sVHasControllerStats
p3008
I00
sVTalentTree
p3009
(lp3010
sVTalentRowCosts
p3011
(lp3012
I1000
aI2500
aI10000
asVDescription
p3013
VRumors abound regarding the origin of GSI's cloaking technologies, but no one can argue about the end result: the GSI Deep Eclipse starfighter cloaking device is among the galaxy's best. Once activated, the Deep Eclipse's cloak has a very long duration and can be toggled on or off outside of combat. If a cloaked ship suffers damage, triggers weapons or activates another ship system, the cloak immediately fails.
p3014
sVIcon
p3015
Vspvp_cloakingdevice
p3016
sasVThruster
p3017
(lp3018
(dp3019
VAvailable
p3020
I01
sVBase
p3021
(dp3022
VStats
p3023
(dp3024
V[Pc]Engines_Max_Power
p3025
F0.080000000000000002
ssVName
p3026
VIncreased Engine Power
p3027
sVCooldown
p3028
F0
sVActive
p3029
I00
sVDescription
p3030
VEngine power pool increased by 8%.
p3031
sVIcon
p3032
Vspvp_enginepower
p3033
ssVStats
p3034
(dp3035
sVName
p3036
VPower Thrusters
p3037
sVDefault
p3038
I01
sVShipRequisitionCost
p3039
I1000
sVHasControllerStats
p3040
I00
sVTalentTree
p3041
(lp3042
(lp3043
(dp3044
VTarget
p3045
V
sVIcon
p3046
Vspvp_enginepower
p3047
sVStats
p3048
(dp3049
V[Pc]Engines_Max_Power
p3050
F0.040000000000000001
ssVName
p3051
VIncreased Power
p3052
sVDescription
p3053
VEngine power pool increased by an additional 4%.
p3054
saa(lp3055
(dp3056
VTarget
p3057
V
sVIcon
p3058
Vspvp_enginepower
p3059
sVStats
p3060
(dp3061
V[Pc]Engines_Max_Power
p3062
F0.040000000000000001
ssVName
p3063
VIncreased Power
p3064
sVDescription
p3065
VEngine power pool increased by an additional 4%.
p3066
saa(lp3067
(dp3068
VTarget
p3069
V
sVIcon
p3070
Vspvp_enginepower
p3071
sVStats
p3072
(dp3073
V[Pc]Engines_Max_Power
p3074
F0.040000000000000001
ssVName
p3075
VIncreased Power
p3076
sVDescription
p3077
VEngine power pool increased by an additional 4%.
p3078
saasVTalentRowCosts
p3079
(lp3080
I1000
aI1500
aI2500
asVDescription
p3081
VBy heightening thruster efficiency, the Celestial Industries THR-4B thruster component increases the maximum power available to a ship's engines.
p3082
sVIcon
p3083
Vspvp_enginepower
p3084
sa(dp3085
VAvailable
p3086
I01
sVBase
p3087
(dp3088
VStats
p3089
(dp3090
VTurn_Rate_Modifier
p3091
F0.040000000000000001
ssVName
p3092
VIncreased Turn Rate
p3093
sVCooldown
p3094
F0
sVActive
p3095
I00
sVDescription
p3096
VShip's turning rate increased by 4%.
p3097
sVIcon
p3098
Vspvp_turningrates
p3099
ssVStats
p3100
(dp3101
sVName
p3102
VTurning Thrusters
p3103
sVDefault
p3104
I00
sVShipRequisitionCost
p3105
I1000
sVHasControllerStats
p3106
I00
sVTalentTree
p3107
(lp3108
(lp3109
(dp3110
VTarget
p3111
V
sVIcon
p3112
Vspvp_turningrates
p3113
sVStats
p3114
(dp3115
VTurn_Rate_Modifier
p3116
F0.02
ssVName
p3117
VIncrease Turning Rate
p3118
sVDescription
p3119
VShip's turning rate increased by an additional 2%.
p3120
saa(lp3121
(dp3122
VTarget
p3123
V
sVIcon
p3124
Vspvp_turningrates
p3125
sVStats
p3126
(dp3127
VTurn_Rate_Modifier
p3128
F0.02
ssVName
p3129
VIncrease Turning Rate
p3130
sVDescription
p3131
VShip's turning rate increased by an additional 2%.
p3132
saa(lp3133
(dp3134
VTarget
p3135
V
sVIcon
p3136
Vspvp_turningrates
p3137
sVStats
p3138
(dp3139
VTurn_Rate_Modifier
p3140
F0.02
ssVName
p3141
VIncrease Turning Rate
p3142
sVDescription
p3143
VShip's turning rate increased by an additional 2%.
p3144
saasVTalentRowCosts
p3145
(lp3146
I1000
aI1500
aI2500
asVDescription
p3147
VThe Keizar-Volvec KV457-C thruster component allows precision control over a ship's maneuvering thrusters, resulting in a faster turning rate.
p3148
sVIcon
p3149
Vspvp_turningrates
p3150
sa(dp3151
VAvailable
p3152
I01
sVBase
p3153
(dp3154
VStats
p3155
(dp3156
V[Pc]Power_Engine_Regen_Rate_(when_Recently_Consumed)
p3157
F0.080000000000000002
sV[Pc]Power_Engine_Regen_Rate
p3158
F0.080000000000000002
ssVName
p3159
VIncreased Engine Power Regeneration
p3160
sVCooldown
p3161
F0
sVActive
p3162
I00
sVDescription
p3163
VEngine power pool regeneration increased by 8%.
p3164
sVIcon
p3165
Vspvp_enginepowerregeneration
p3166
ssVStats
p3167
(dp3168
sVName
p3169
VRegeneration Thrusters
p3170
sVDefault
p3171
I00
sVShipRequisitionCost
p3172
I1000
sVHasControllerStats
p3173
I00
sVTalentTree
p3174
(lp3175
(lp3176
(dp3177
VTarget
p3178
V
sVIcon
p3179
Vspvp_enginepowerregeneration
p3180
sVStats
p3181
(dp3182
V[Pc]Power_Engine_Regen_Rate_(when_Recently_Consumed)
p3183
F0.040000000000000001
sV[Pc]Power_Engine_Regen_Rate
p3184
F0.040000000000000001
ssVName
p3185
VIncreased Power Regeneration
p3186
sVDescription
p3187
VEngine power pool regeneration increased by an additional 4%.
p3188
saa(lp3189
(dp3190
VTarget
p3191
V
sVIcon
p3192
Vspvp_enginepowerregeneration
p3193
sVStats
p3194
(dp3195
V[Pc]Power_Engine_Regen_Rate_(when_Recently_Consumed)
p3196
F0.040000000000000001
sV[Pc]Power_Engine_Regen_Rate
p3197
F0.040000000000000001
ssVName
p3198
VIncreased Power Regeneration
p3199
sVDescription
p3200
VEngine power pool regeneration increased by an additional 4%.
p3201
saa(lp3202
(dp3203
VTarget
p3204
V
sVIcon
p3205
Vspvp_enginepowerregeneration
p3206
sVStats
p3207
(dp3208
V[Pc]Power_Engine_Regen_Rate_(when_Recently_Consumed)
p3209
F0.040000000000000001
sV[Pc]Power_Engine_Regen_Rate
p3210
F0.040000000000000001
ssVName
p3211
VIncreased Power Regeneration
p3212
sVDescription
p3213
VEngine power pool regeneration increased by an additional 4%.
p3214
saasVTalentRowCosts
p3215
(lp3216
I1000
aI1500
aI2500
asVDescription
p3217
VElsinore-Cordova's unusual Dual Stream DS-001 thruster component increases a ship's engine power regeneration rate. It does so by allowing thrusters to intake stray radiation particles, drawing energy for the ship.
p3218
sVIcon
p3219
Vspvp_enginepowerregeneration
p3220
sa(dp3221
VAvailable
p3222
I01
sVBase
p3223
(dp3224
VStats
p3225
(dp3226
VEngine_Speed_Multiplier
p3227
F0.040000000000000001
ssVName
p3228
VIncreased Speed
p3229
sVCooldown
p3230
F0
sVActive
p3231
I00
sVDescription
p3232
VEngine speed increased by 4%.
p3233
sVIcon
p3234
Vspvp_enginespeed
p3235
ssVStats
p3236
(dp3237
sVName
p3238
VSpeed Thrusters
p3239
sVDefault
p3240
I00
sVShipRequisitionCost
p3241
I1000
sVHasControllerStats
p3242
I00
sVTalentTree
p3243
(lp3244
(lp3245
(dp3246
VTarget
p3247
V
sVIcon
p3248
Vspvp_enginespeed
p3249
sVStats
p3250
(dp3251
VEngine_Speed_Multiplier
p3252
F0.02
ssVName
p3253
VIncreased Speed
p3254
sVDescription
p3255
VEngine speed increased by an additional 2%.
p3256
saa(lp3257
(dp3258
VTarget
p3259
V
sVIcon
p3260
Vspvp_enginespeed
p3261
sVStats
p3262
(dp3263
VEngine_Speed_Multiplier
p3264
F0.02
ssVName
p3265
VIncreased Speed
p3266
sVDescription
p3267
VEngine speed increased by an additional 2%.
p3268
saa(lp3269
(dp3270
VTarget
p3271
V
sVIcon
p3272
Vspvp_enginespeed
p3273
sVStats
p3274
(dp3275
VEngine_Speed_Multiplier
p3276
F0.02
ssVName
p3277
VIncreased Speed
p3278
sVDescription
p3279
VEngine speed increased by an additional 2%.
p3280
saasVTalentRowCosts
p3281
(lp3282
I1000
aI1500
aI2500
asVDescription
p3283
VThe Vokoff-Strood X/ATM-44 thruster component increases a ship's maximum speed. Originally used in Vokoff-Strood airspeeders, it now works both in and out of planetary atmospheres.
p3284
sVIcon
p3285
Vspvp_enginespeed
p3286
sasVSecondaryWeapon2
p3287
(lp3288
(dp3289
VAvailable
p3290
I01
sVBase
p3291
(dp3292
VStats
p3293
(dp3294
sVName
p3295
VSecondary Weapon Swap
p3296
sVCooldown
p3297
F0
sVActive
p3298
I01
sVDescription
p3299
VThe GSI "X-Change (Arsenal)" secondary weapon swap system allows a pilot to mount two secondary weapons aboard a ship at the cost of an auxiliary system. The pilot can then switch between the secondaries at any time.
p3300
sVIcon
p3301
Vspvp_secondaryweaponswap
p3302
ssVStats
p3303
(dp3304
VlongRangeDamMulti
p3305
F0
sVmidRangeAccMulti
p3306
F0
sVmidRangeDamMulti
p3307
F0
sVWeapon_Shield_Damage_Multiplier
p3308
F1
sVWeapon_Base_Accuracy
p3309
F1
sVWeapon_Range_Long
p3310
F150
sVWeapon_Reload_Time
p3311
F1
sVWeapon_Range_Mid
p3312
F75
sVWeapon_Lock_On_Time
p3313
F0
sVWeapon_Base_Damage
p3314
F1600
sVWeapon_Cooldown_Time_(OBSOLETE)
p3315
F1
sVWeapon_Hull_Damage_Multiplier
p3316
F1
sVlongRangeAccMulti
p3317
F-0.050000000000000003
sVpbRangeAccMulti
p3318
F0.10000000000000001
sVWeapon_Charge_Up_Time
p3319
F3
sVWeapon_Firing_Arc
p3320
F10
sVpbRangeDamMulti
p3321
F0
sVWeapon_Power_Draw
p3322
F0
sVAmmo_Pool_Size
p3323
F0
sVWeapon_Shield_Piercing
p3324
F0.20000000000000001
sVCrit_Chance
p3325
F0
sVWeapon_Range_Point_Blank
p3326
F5
sVtrackingAccuracyLoss
p3327
F0.050000000000000003
sVWeapon_Armor_Penetration
p3328
F0
sVWeapon_Rate_of_Fire
p3329
F0
sVCrit_Damage_Multiplier
p3330
F0.5
ssVName
p3331
VSlug Railgun
p3332
sVDefault
p3333
I00
sVShipRequisitionCost
p3334
I2000
sVHasControllerStats
p3335
I01
sVTalentTree
p3336
(lp3337
(lp3338
(dp3339
VTarget
p3340
VSelf
p3341
sVIcon
p3342
Vspvp_reducelockontime
p3343
sVStats
p3344
(dp3345
V[Pc]Weapon_Charge_Up_Time
p3346
F-0.10000000000000001
ssVName
p3347
VReduced Charge Time
p3348
sVDescription
p3349
VThe time required to fully charge the railgun is reduced by 10%.
p3350
saa(lp3351
(dp3352
VTarget
p3353
VSelf
p3354
sVIcon
p3355
Vspvp_shieldpiercing
p3356
sVStats
p3357
(dp3358
VWeapon_Shield_Piercing
p3359
F0.080000000000000002
ssVName
p3360
VShield Piercing
p3361
sVDescription
p3362
VShield piercing increased by 8%.
p3363
saa(lp3364
(dp3365
VTarget
p3366
VSelf
p3367
sVIcon
p3368
Vspvp_ignorearmor
p3369
sVStats
p3370
(dp3371
VWeapon_Armor_Penetration
p3372
F1
ssVName
p3373
VIgnore Armor
p3374
sVDescription
p3375
VRailgun damage ignores 100% of enemy armor.
p3376
saa(lp3377
(dp3378
VTarget
p3379
VSelf
p3380
sVIcon
p3381
Vspvp_increaseaccuracy
p3382
sVStats
p3383
(dp3384
VWeapon_Tracking_Bonus
p3385
F0.050000000000000003
sVWeapon_Base_Accuracy
p3386
F0.029999999999999999
ssVName
p3387
VImproved Accuracy and Tracking
p3388
sVDescription
p3389
VRailgun accuracy increased by 3% and tracking increased by 5%.
p3390
sa(dp3391
VTarget
p3392
V
sVIcon
p3393
Vspvp_reducedpowerdraw1
p3394
sVStats
p3395
(dp3396
V[Pb]Ability_Weapon_Cost
p3397
F-0.10000000000000001
ssVName
p3398
VReduced Power Draw
p3399
sVDescription
p3400
VConsumes 10% less power per second.
p3401
saa(lp3402
(dp3403
VTarget
p3404
VSelf
p3405
sVIcon
p3406
Vspvp_increasedsystemsdamagechance
p3407
sVStats
p3408
(dp3409
VCrit_Chance
p3410
F0.16
ssVName
p3411
VIncreased Critical Hit Chance
p3412
sVDescription
p3413
VRailgun critical hit chance increased by 16%.
p3414
sa(dp3415
VTarget
p3416
VSelf
p3417
sVIcon
p3418
Vspvp_primaryweapondamage
p3419
sVStats
p3420
(dp3421
V[Pc]Weapon_Base_Damage
p3422
F0.10000000000000001
ssVName
p3423
VIncreased Damage
p3424
sVDescription
p3425
VRailgun damage increased by 10%.
p3426
saasVTalentRowCosts
p3427
(lp3428
I1000
aI2500
aI5000
aI10000
aI15000
asVDescription
p3429
VOriginally designed by Balmorran Arms, HR-0C Slingshot slug railguns are basic magnetic cannons with extraordinary range. The "slug" is a metal projectile that delivers high damage and partially bypasses a target's shield. When fully charged, a slug railgun's damage output can be absolutely devastating.
p3430
sVIcon
p3431
Vspvp.neu.starship.ricker.sweapon.01
p3432
sa(dp3433
VAvailable
p3434
I01
sVBase
p3435
(dp3436
VStats
p3437
(dp3438
sVName
p3439
VSecondary Weapon Swap
p3440
sVCooldown
p3441
F0
sVActive
p3442
I01
sVDescription
p3443
VThe GSI "X-Change (Arsenal)" secondary weapon swap system allows a pilot to mount two secondary weapons aboard a ship at the cost of an auxiliary system. The pilot can then switch between the secondaries at any time.
p3444
sVIcon
p3445
Vspvp_secondaryweaponswap
p3446
ssVStats
p3447
(dp3448
VlongRangeDamMulti
p3449
F0
sVmidRangeAccMulti
p3450
F0
sVmidRangeDamMulti
p3451
F0
sVWeapon_Shield_Damage_Multiplier
p3452
F1
sVWeapon_Base_Accuracy
p3453
F1
sVWeapon_Range_Long
p3454
F150
sVWeapon_Reload_Time
p3455
F1
sVWeapon_Range_Mid
p3456
F75
sVWeapon_Lock_On_Time
p3457
F0
sVWeapon_Base_Damage
p3458
F1800
sVWeapon_Cooldown_Time_(OBSOLETE)
p3459
F1
sVWeapon_Hull_Damage_Multiplier
p3460
F1
sVlongRangeAccMulti
p3461
F-0.050000000000000003
sVpbRangeAccMulti
p3462
F0.10000000000000001
sVWeapon_Charge_Up_Time
p3463
F3
sVWeapon_Firing_Arc
p3464
F12
sVpbRangeDamMulti
p3465
F0
sVWeapon_Power_Draw
p3466
F0
sVAmmo_Pool_Size
p3467
F0
sVWeapon_Shield_Piercing
p3468
F0
sVCrit_Chance
p3469
F0
sVWeapon_Range_Point_Blank
p3470
F5
sVtrackingAccuracyLoss
p3471
F0.050000000000000003
sVWeapon_Armor_Penetration
p3472
F0
sVWeapon_Rate_of_Fire
p3473
F0
sVCrit_Damage_Multiplier
p3474
F0.5
ssVName
p3475
VPlasma Railgun
p3476
sVDefault
p3477
I00
sVShipRequisitionCost
p3478
I2000
sVHasControllerStats
p3479
I01
sVTalentTree
p3480
(lp3481
(lp3482
(dp3483
VTarget
p3484
VSelf
p3485
sVIcon
p3486
Vspvp_reducelockontime
p3487
sVStats
p3488
(dp3489
V[Pc]Weapon_Charge_Up_Time
p3490
F-0.10000000000000001
ssVName
p3491
VReduced Charge Time
p3492
sVDescription
p3493
VThe time required to fully charge the railgun is reduced by 10%.
p3494
saa(lp3495
(dp3496
VTarget
p3497
VSelf
p3498
sVIcon
p3499
Vspvp_increasedsystemsdamagechance
p3500
sVStats
p3501
(dp3502
VCrit_Chance
p3503
F0.080000000000000002
ssVName
p3504
VIncreased Critical Hit Chance
p3505
sVDescription
p3506
VCritical hit chance increased by 8%.
p3507
saa(lp3508
(dp3509
VTarget
p3510
V
sVIcon
p3511
Vspvp_reducedpowerdraw1
p3512
sVStats
p3513
(dp3514
V[Pb]Ability_Weapon_Cost
p3515
F-0.10000000000000001
ssVName
p3516
VReduced Power Draw
p3517
sVDescription
p3518
VConsumes 10% less power per second.
p3519
saa(lp3520
(dp3521
VTarget
p3522
V
sVIcon
p3523
Vspvp_ignorearmor
p3524
sVStats
p3525
(dp3526
sVName
p3527
VMelt Armor
p3528
sVDescription
p3529
VTarget's damage reduction is reduced by 20% while damage over time is active.
p3530
sa(dp3531
VTarget
p3532
V
sVIcon
p3533
Vspvp_servojammer
p3534
sVStats
p3535
(dp3536
sVName
p3537
VMelt Thrusters
p3538
sVDescription
p3539
VTarget's evasion is reduced by 10% while damage over time is active.
p3540
saa(lp3541
(dp3542
VTarget
p3543
V
sVIcon
p3544
Vspvp_increasedduration
p3545
sVStats
p3546
(dp3547
VEffect_Duration
p3548
F1
ssVName
p3549
VExtended Burn
p3550
sVDescription
p3551
VDuration increased by 1 second.
p3552
sa(dp3553
VTarget
p3554
V
sVIcon
p3555
Vspvp_primaryweapondamage
p3556
sVStats
p3557
(dp3558
sVName
p3559
VIntense Plasma
p3560
sVDescription
p3561
VDamage dealt by lingering burn effect increased by 15%.
p3562
saasVTalentRowCosts
p3563
(lp3564
I1000
aI2500
aI5000
aI10000
aI15000
asVDescription
p3565
VCzerka produces an array of exotic weaponry including the Incinerator-class plasma railgun. The Incinerator fires plasma bolts enclosed in magnetic fields, targeting enemies at extraordinary range and causing massive damage when fully charged. Plasma bolts do not pierce enemy shields directly but continue to burn a target after impact, causing significant damage over time to both shields and hull.
p3566
sVIcon
p3567
Vspvp.neu.starship.ricker.sweapon.01
p3568
sa(dp3569
VAvailable
p3570
I01
sVBase
p3571
(dp3572
VStats
p3573
(dp3574
sVName
p3575
VSecondary Weapon Swap
p3576
sVCooldown
p3577
F0
sVActive
p3578
I01
sVDescription
p3579
VThe GSI "X-Change (Arsenal)" secondary weapon swap system allows a pilot to mount two secondary weapons aboard a ship at the cost of an auxiliary system. The pilot can then switch between the secondaries at any time.
p3580
sVIcon
p3581
Vspvp_secondaryweaponswap
p3582
ssVStats
p3583
(dp3584
VlongRangeDamMulti
p3585
F0
sVmidRangeAccMulti
p3586
F0
sVmidRangeDamMulti
p3587
F0
sVWeapon_Shield_Damage_Multiplier
p3588
F2
sVWeapon_Base_Accuracy
p3589
F1
sVWeapon_Range_Long
p3590
F150
sVWeapon_Reload_Time
p3591
F1
sVWeapon_Range_Mid
p3592
F75
sVWeapon_Lock_On_Time
p3593
F0
sVWeapon_Base_Damage
p3594
F925
sVWeapon_Cooldown_Time_(OBSOLETE)
p3595
F1
sVWeapon_Hull_Damage_Multiplier
p3596
F0.5
sVlongRangeAccMulti
p3597
F-0.050000000000000003
sVpbRangeAccMulti
p3598
F0.10000000000000001
sVWeapon_Charge_Up_Time
p3599
F3
sVWeapon_Firing_Arc
p3600
F10
sVpbRangeDamMulti
p3601
F0
sVWeapon_Power_Draw
p3602
F0
sVAmmo_Pool_Size
p3603
F0
sVWeapon_Shield_Piercing
p3604
F0
sVCrit_Chance
p3605
F0
sVWeapon_Range_Point_Blank
p3606
F5
sVtrackingAccuracyLoss
p3607
F0.050000000000000003
sVWeapon_Armor_Penetration
p3608
F0
sVWeapon_Rate_of_Fire
p3609
F0
sVCrit_Damage_Multiplier
p3610
F0.5
ssVName
p3611
VIon Railgun
p3612
sVDefault
p3613
I01
sVShipRequisitionCost
p3614
I2000
sVHasControllerStats
p3615
I01
sVTalentTree
p3616
(lp3617
(lp3618
(dp3619
VTarget
p3620
VSelf
p3621
sVIcon
p3622
Vspvp_increaseaccuracy
p3623
sVStats
p3624
(dp3625
VWeapon_Tracking_Bonus
p3626
F0.050000000000000003
sVWeapon_Base_Accuracy
p3627
F0.029999999999999999
ssVName
p3628
VIncreased Accuracy and Tracking
p3629
sVDescription
p3630
VRailgun accuracy increased by 3% and tracking increased by 5%.\u000a
p3631
saa(lp3632
(dp3633
VTarget
p3634
VSelf
p3635
sVIcon
p3636
Vspvp_reducelockontime
p3637
sVStats
p3638
(dp3639
V[Pc]Weapon_Charge_Up_Time
p3640
F-0.10000000000000001
ssVName
p3641
VReduced Charge Time
p3642
sVDescription
p3643
VThe time required to fully charge the railgun is reduced by 10%.
p3644
saa(lp3645
(dp3646
VTarget
p3647
V
sVIcon
p3648
Vspvp_powerdrainweapon
p3649
sVStats
p3650
(dp3651
sVName
p3652
VPower Drain
p3653
sVDescription
p3654
VIon Railgun hits drain an additional 10 units of energy.
p3655
saa(lp3656
(dp3657
VTarget
p3658
VSelf
p3659
sVIcon
p3660
Vspvp_increasedsystemsdamagechance
p3661
sVStats
p3662
(dp3663
VCrit_Chance
p3664
F0.080000000000000002
ssVName
p3665
VIncreased Critical Damage Chance
p3666
sVDescription
p3667
VCritical damage chance increased by 8%.
p3668
sa(dp3669
VTarget
p3670
VSelf
p3671
sVIcon
p3672
Vspvp_aoedamage
p3673
sVStats
p3674
(dp3675
sVName
p3676
VHits Do Area Damage
p3677
sVDescription
p3678
VRailgun hits arc to hit up to 3 enemies within 3000m, doing half damage and draining up to 10 engine and weapon power.
p3679
saa(lp3680
(dp3681
VTarget
p3682
V
sVIcon
p3683
Vspvp_servojammer
p3684
sVStats
p3685
(dp3686
sVName
p3687
VEngine Disruption
p3688
sVDescription
p3689
VRailgun hits slow target's speed by 55% for 12 seconds.
p3690
sa(dp3691
VTarget
p3692
V
sVIcon
p3693
Vspvp_infiniteloop
p3694
sVStats
p3695
(dp3696
sVName
p3697
VReactor Disruption
p3698
sVDescription
p3699
VRailgun hits slow target's energy regeneration by 55% for 6 seconds.
p3700
saasVTalentRowCosts
p3701
(lp3702
I1000
aI2500
aI5000
aI10000
aI15000
asVDescription
p3703
VThe Balmorran Arms HR-IO4 ion railgun is a ship-mounted magnetic cannon with extraordinary range. It fires ion particles enclosed in a magnetic field which do minimal hull damage but cause severe damage to shields, and drain weapon and engine power.
p3704
sVIcon
p3705
Vspvp.neu.starship.ricker.sweapon.01
p3706
sasVCapacitor
p3707
(lp3708
(dp3709
VAvailable
p3710
I01
sVBase
p3711
(dp3712
VStats
p3713
(dp3714
V[Pc]Weapon_Range_Mid
p3715
F0.040000000000000001
sV[Pc]Weapon_Range_Long
p3716
F0.040000000000000001
sV[Pc]Weapon_Range_Point_Blank
p3717
F0.040000000000000001
ssVName
p3718
VPrecision Capacitor
p3719
sVCooldown
p3720
F0
sVActive
p3721
I00
sVDescription
p3722
VPrimary weapon range increased by 4%.
p3723
sVIcon
p3724
Vspvp_primaryweaponrange
p3725
ssVStats
p3726
(dp3727
sVName
p3728
VRange Capacitor
p3729
sVDefault
p3730
I00
sVShipRequisitionCost
p3731
I1000
sVHasControllerStats
p3732
I00
sVTalentTree
p3733
(lp3734
(lp3735
(dp3736
VTarget
p3737
VPrimaryWeapons
p3738
sVIcon
p3739
Vspvp_primaryweaponrange
p3740
sVStats
p3741
(dp3742
V[Pc]Weapon_Range_Mid
p3743
F0.02
sV[Pc]Weapon_Range_Long
p3744
F0.02
sV[Pc]Weapon_Range_Point_Blank
p3745
F0.02
ssVName
p3746
VIncreased Range
p3747
sVDescription
p3748
VPrimary weapon range increased by an additional 2%.
p3749
saa(lp3750
(dp3751
VTarget
p3752
VPrimaryWeapons
p3753
sVIcon
p3754
Vspvp_primaryweaponrange
p3755
sVStats
p3756
(dp3757
V[Pc]Weapon_Range_Mid
p3758
F0.02
sV[Pc]Weapon_Range_Long
p3759
F0.02
sV[Pc]Weapon_Range_Point_Blank
p3760
F0.02
ssVName
p3761
VIncreased Range
p3762
sVDescription
p3763
VPrimary weapon range increased by an additional 2%.
p3764
saa(lp3765
(dp3766
VTarget
p3767
VPrimaryWeapons
p3768
sVIcon
p3769
Vspvp_primaryweaponrange
p3770
sVStats
p3771
(dp3772
V[Pc]Weapon_Range_Mid
p3773
F0.02
sV[Pc]Weapon_Range_Long
p3774
F0.02
sV[Pc]Weapon_Range_Point_Blank
p3775
F0.02
ssVName
p3776
VIncreased Range
p3777
sVDescription
p3778
VPrimary weapon range increased by an additional 2%.
p3779
saasVTalentRowCosts
p3780
(lp3781
I1000
aI1500
aI2500
asVDescription
p3782
VThrough enhanced field stabilization technology and precision targeting algorithms, the Czerka KC5 capacitor component increases a ship's primary weapon range. 
p3783
sVIcon
p3784
Vspvp_primaryweaponrange
p3785
sa(dp3786
VAvailable
p3787
I01
sVBase
p3788
(dp3789
VStats
p3790
(dp3791
V[Pc]Weapon_Base_Damage
p3792
F0.040000000000000001
ssVName
p3793
VOvercharged Capacitor
p3794
sVCooldown
p3795
F0
sVActive
p3796
I00
sVDescription
p3797
VPrimary weapon damage increased by 4%.
p3798
sVIcon
p3799
Vspvp_primaryweapondamage
p3800
ssVStats
p3801
(dp3802
sVName
p3803
VDamage Capacitor
p3804
sVDefault
p3805
I01
sVShipRequisitionCost
p3806
I1000
sVHasControllerStats
p3807
I00
sVTalentTree
p3808
(lp3809
(lp3810
(dp3811
VTarget
p3812
VPrimaryWeapons
p3813
sVIcon
p3814
Vspvp_primaryweapondamage
p3815
sVStats
p3816
(dp3817
V[Pc]Weapon_Base_Damage
p3818
F0.02
ssVName
p3819
VIncreased Damage
p3820
sVDescription
p3821
VPrimary weapon damage increased by an additional 2%.
p3822
saa(lp3823
(dp3824
VTarget
p3825
VPrimaryWeapons
p3826
sVIcon
p3827
Vspvp_primaryweapondamage
p3828
sVStats
p3829
(dp3830
V[Pc]Weapon_Base_Damage
p3831
F0.02
ssVName
p3832
VIncreased Damage
p3833
sVDescription
p3834
VPrimary weapon damage increased by an additional 2%.
p3835
saa(lp3836
(dp3837
VTarget
p3838
VPrimaryWeapons
p3839
sVIcon
p3840
Vspvp_primaryweapondamage
p3841
sVStats
p3842
(dp3843
V[Pc]Weapon_Base_Damage
p3844
F0.02
ssVName
p3845
VIncreased Damage
p3846
sVDescription
p3847
VPrimary weapon damage increased by an additional 2%.
p3848
saasVTalentRowCosts
p3849
(lp3850
I1000
aI1500
aI2500
asVDescription
p3851
VDesigned to boost the energy output--and by extension, the resulting damage--of a ship's primary weapons, the Merr-Sonn TQ-895 capacitor component is favored by pilots who want to hit hard and fast.
p3852
sVIcon
p3853
Vspvp_primaryweapondamage
p3854
sa(dp3855
VAvailable
p3856
I01
sVBase
p3857
(dp3858
VStats
p3859
(dp3860
V[Pc]Weapon_Rate_of_Fire
p3861
F0.059999999999999998
ssVName
p3862
VQuick-Charge Capacitor
p3863
sVCooldown
p3864
F0
sVActive
p3865
I00
sVDescription
p3866
VPrimary weapon rate of fire increased by 6%.
p3867
sVIcon
p3868
Vspvp_primaryweaponrof
p3869
ssVStats
p3870
(dp3871
sVName
p3872
VFrequency Capacitor
p3873
sVDefault
p3874
I00
sVShipRequisitionCost
p3875
I1000
sVHasControllerStats
p3876
I00
sVTalentTree
p3877
(lp3878
(lp3879
(dp3880
VTarget
p3881
VPrimaryWeapons
p3882
sVIcon
p3883
Vspvp_primaryweaponrof
p3884
sVStats
p3885
(dp3886
V[Pc]Weapon_Rate_of_Fire
p3887
F0.029999999999999999
ssVName
p3888
VIncreased Rate of Fire
p3889
sVDescription
p3890
VPrimary weapon rate of fire increased by an additional 3%.
p3891
saa(lp3892
(dp3893
VTarget
p3894
VPrimaryWeapons
p3895
sVIcon
p3896
Vspvp_primaryweaponrof
p3897
sVStats
p3898
(dp3899
V[Pc]Weapon_Rate_of_Fire
p3900
F0.029999999999999999
ssVName
p3901
VIncreased Rate of Fire
p3902
sVDescription
p3903
VPrimary weapon rate of fire increased by an additional 3%.
p3904
saa(lp3905
(dp3906
VTarget
p3907
VPrimaryWeapons
p3908
sVIcon
p3909
Vspvp_primaryweaponrof
p3910
sVStats
p3911
(dp3912
V[Pc]Weapon_Rate_of_Fire
p3913
F0.029999999999999999
ssVName
p3914
VIncreased Rate of Fire
p3915
sVDescription
p3916
VPrimary weapon rate of fire increased by an additional 3%.
p3917
saasVTalentRowCosts
p3918
(lp3919
I1000
aI1500
aI2500
asVDescription
p3920
VThe BlasTech SF-12 capacitor component increases the rate of fire of a ship's primary weapons by feeding energy to both the weapons and augmented cooling systems. It has a reputation for safety and reliability.
p3921
sVIcon
p3922
Vspvp_primaryweaponrof
p3923
sasVMajorEquipType
p3924
VPSYHE
p3925
sVMinorEquipType
p3926
VARST
p3927
sVIcon
p3928
Vspvp_rep_infiltrator_1
p3929
s.